	.file	"luaclass.cc"
	.text
	.section	.text._ZNSt9exceptionC2Ev,"axG",@progbits,_ZNSt9exceptionC5Ev,comdat
	.align 2
	.weak	_ZNSt9exceptionC2Ev
	.type	_ZNSt9exceptionC2Ev, @function
_ZNSt9exceptionC2Ev:
.LFB350:
	.cfi_startproc
	endbr64
	pushq	%rbp
	.cfi_def_cfa_offset 16
	.cfi_offset 6, -16
	movq	%rsp, %rbp
	.cfi_def_cfa_register 6
	movq	%rdi, -8(%rbp)
	leaq	16+_ZTVSt9exception(%rip), %rdx
	movq	-8(%rbp), %rax
	movq	%rdx, (%rax)
	nop
	popq	%rbp
	.cfi_def_cfa 7, 8
	ret
	.cfi_endproc
.LFE350:
	.size	_ZNSt9exceptionC2Ev, .-_ZNSt9exceptionC2Ev
	.weak	_ZNSt9exceptionC1Ev
	.set	_ZNSt9exceptionC1Ev,_ZNSt9exceptionC2Ev
	.section	.text._ZnwmPv,"axG",@progbits,_ZnwmPv,comdat
	.weak	_ZnwmPv
	.type	_ZnwmPv, @function
_ZnwmPv:
.LFB358:
	.cfi_startproc
	endbr64
	pushq	%rbp
	.cfi_def_cfa_offset 16
	.cfi_offset 6, -16
	movq	%rsp, %rbp
	.cfi_def_cfa_register 6
	movq	%rdi, -8(%rbp)
	movq	%rsi, -16(%rbp)
	movq	-16(%rbp), %rax
	popq	%rbp
	.cfi_def_cfa 7, 8
	ret
	.cfi_endproc
.LFE358:
	.size	_ZnwmPv, .-_ZnwmPv
	.section	.text._ZdlPvS_,"axG",@progbits,_ZdlPvS_,comdat
	.weak	_ZdlPvS_
	.type	_ZdlPvS_, @function
_ZdlPvS_:
.LFB360:
	.cfi_startproc
	endbr64
	pushq	%rbp
	.cfi_def_cfa_offset 16
	.cfi_offset 6, -16
	movq	%rsp, %rbp
	.cfi_def_cfa_register 6
	movq	%rdi, -8(%rbp)
	movq	%rsi, -16(%rbp)
	nop
	popq	%rbp
	.cfi_def_cfa 7, 8
	ret
	.cfi_endproc
.LFE360:
	.size	_ZdlPvS_, .-_ZdlPvS_
	.section	.text._ZNSt10_Hash_impl4hashEPKvmm,"axG",@progbits,_ZNSt10_Hash_impl4hashEPKvmm,comdat
	.weak	_ZNSt10_Hash_impl4hashEPKvmm
	.type	_ZNSt10_Hash_impl4hashEPKvmm, @function
_ZNSt10_Hash_impl4hashEPKvmm:
.LFB952:
	.cfi_startproc
	endbr64
	pushq	%rbp
	.cfi_def_cfa_offset 16
	.cfi_offset 6, -16
	movq	%rsp, %rbp
	.cfi_def_cfa_register 6
	subq	$32, %rsp
	movq	%rdi, -8(%rbp)
	movq	%rsi, -16(%rbp)
	movq	%rdx, -24(%rbp)
	movq	-24(%rbp), %rdx
	movq	-16(%rbp), %rcx
	movq	-8(%rbp), %rax
	movq	%rcx, %rsi
	movq	%rax, %rdi
	call	_ZSt11_Hash_bytesPKvmm@PLT
	leave
	.cfi_def_cfa 7, 8
	ret
	.cfi_endproc
.LFE952:
	.size	_ZNSt10_Hash_impl4hashEPKvmm, .-_ZNSt10_Hash_impl4hashEPKvmm
	.section	.rodata
	.align 4
	.type	_ZN9__gnu_cxxL21__default_lock_policyE, @object
	.size	_ZN9__gnu_cxxL21__default_lock_policyE, 4
_ZN9__gnu_cxxL21__default_lock_policyE:
	.long	2
	.type	_ZN6__pstl9execution2v1L3seqE, @object
	.size	_ZN6__pstl9execution2v1L3seqE, 1
_ZN6__pstl9execution2v1L3seqE:
	.zero	1
	.type	_ZN6__pstl9execution2v1L3parE, @object
	.size	_ZN6__pstl9execution2v1L3parE, 1
_ZN6__pstl9execution2v1L3parE:
	.zero	1
	.type	_ZN6__pstl9execution2v1L9par_unseqE, @object
	.size	_ZN6__pstl9execution2v1L9par_unseqE, 1
_ZN6__pstl9execution2v1L9par_unseqE:
	.zero	1
	.type	_ZN6__pstl9execution2v1L5unseqE, @object
	.size	_ZN6__pstl9execution2v1L5unseqE, 1
_ZN6__pstl9execution2v1L5unseqE:
	.zero	1
	.section	.text._ZNSt9_Any_data9_M_accessEv,"axG",@progbits,_ZNSt9_Any_data9_M_accessEv,comdat
	.align 2
	.weak	_ZNSt9_Any_data9_M_accessEv
	.type	_ZNSt9_Any_data9_M_accessEv, @function
_ZNSt9_Any_data9_M_accessEv:
.LFB1624:
	.cfi_startproc
	endbr64
	pushq	%rbp
	.cfi_def_cfa_offset 16
	.cfi_offset 6, -16
	movq	%rsp, %rbp
	.cfi_def_cfa_register 6
	movq	%rdi, -8(%rbp)
	movq	-8(%rbp), %rax
	popq	%rbp
	.cfi_def_cfa 7, 8
	ret
	.cfi_endproc
.LFE1624:
	.size	_ZNSt9_Any_data9_M_accessEv, .-_ZNSt9_Any_data9_M_accessEv
	.section	.text._ZNKSt9_Any_data9_M_accessEv,"axG",@progbits,_ZNKSt9_Any_data9_M_accessEv,comdat
	.align 2
	.weak	_ZNKSt9_Any_data9_M_accessEv
	.type	_ZNKSt9_Any_data9_M_accessEv, @function
_ZNKSt9_Any_data9_M_accessEv:
.LFB1625:
	.cfi_startproc
	endbr64
	pushq	%rbp
	.cfi_def_cfa_offset 16
	.cfi_offset 6, -16
	movq	%rsp, %rbp
	.cfi_def_cfa_register 6
	movq	%rdi, -8(%rbp)
	movq	-8(%rbp), %rax
	popq	%rbp
	.cfi_def_cfa 7, 8
	ret
	.cfi_endproc
.LFE1625:
	.size	_ZNKSt9_Any_data9_M_accessEv, .-_ZNKSt9_Any_data9_M_accessEv
	.section	.text._ZNSt14_Function_baseD2Ev,"axG",@progbits,_ZNSt14_Function_baseD5Ev,comdat
	.align 2
	.weak	_ZNSt14_Function_baseD2Ev
	.type	_ZNSt14_Function_baseD2Ev, @function
_ZNSt14_Function_baseD2Ev:
.LFB1640:
	.cfi_startproc
	.cfi_personality 0x9b,DW.ref.__gxx_personality_v0
	.cfi_lsda 0x1b,.LLSDA1640
	endbr64
	pushq	%rbp
	.cfi_def_cfa_offset 16
	.cfi_offset 6, -16
	movq	%rsp, %rbp
	.cfi_def_cfa_register 6
	subq	$16, %rsp
	movq	%rdi, -8(%rbp)
	movq	-8(%rbp), %rax
	movq	16(%rax), %rax
	testq	%rax, %rax
	je	.L13
	movq	-8(%rbp), %rax
	movq	16(%rax), %r8
	movq	-8(%rbp), %rcx
	movq	-8(%rbp), %rax
	movl	$3, %edx
	movq	%rcx, %rsi
	movq	%rax, %rdi
	call	*%r8
.L13:
	nop
	leave
	.cfi_def_cfa 7, 8
	ret
	.cfi_endproc
.LFE1640:
	.globl	__gxx_personality_v0
	.section	.gcc_except_table._ZNSt14_Function_baseD2Ev,"aG",@progbits,_ZNSt14_Function_baseD5Ev,comdat
.LLSDA1640:
	.byte	0xff
	.byte	0xff
	.byte	0x1
	.uleb128 .LLSDACSE1640-.LLSDACSB1640
.LLSDACSB1640:
.LLSDACSE1640:
	.section	.text._ZNSt14_Function_baseD2Ev,"axG",@progbits,_ZNSt14_Function_baseD5Ev,comdat
	.size	_ZNSt14_Function_baseD2Ev, .-_ZNSt14_Function_baseD2Ev
	.weak	_ZNSt14_Function_baseD1Ev
	.set	_ZNSt14_Function_baseD1Ev,_ZNSt14_Function_baseD2Ev
	.section	.text._ZNKSt14_Function_base8_M_emptyEv,"axG",@progbits,_ZNKSt14_Function_base8_M_emptyEv,comdat
	.align 2
	.weak	_ZNKSt14_Function_base8_M_emptyEv
	.type	_ZNKSt14_Function_base8_M_emptyEv, @function
_ZNKSt14_Function_base8_M_emptyEv:
.LFB1642:
	.cfi_startproc
	endbr64
	pushq	%rbp
	.cfi_def_cfa_offset 16
	.cfi_offset 6, -16
	movq	%rsp, %rbp
	.cfi_def_cfa_register 6
	movq	%rdi, -8(%rbp)
	movq	-8(%rbp), %rax
	movq	16(%rax), %rax
	testq	%rax, %rax
	sete	%al
	popq	%rbp
	.cfi_def_cfa 7, 8
	ret
	.cfi_endproc
.LFE1642:
	.size	_ZNKSt14_Function_base8_M_emptyEv, .-_ZNKSt14_Function_base8_M_emptyEv
	.section	.text._ZNSt8__detail15_Hash_node_baseC2Ev,"axG",@progbits,_ZNSt8__detail15_Hash_node_baseC5Ev,comdat
	.align 2
	.weak	_ZNSt8__detail15_Hash_node_baseC2Ev
	.type	_ZNSt8__detail15_Hash_node_baseC2Ev, @function
_ZNSt8__detail15_Hash_node_baseC2Ev:
.LFB1682:
	.cfi_startproc
	endbr64
	pushq	%rbp
	.cfi_def_cfa_offset 16
	.cfi_offset 6, -16
	movq	%rsp, %rbp
	.cfi_def_cfa_register 6
	movq	%rdi, -8(%rbp)
	movq	-8(%rbp), %rax
	movq	$0, (%rax)
	nop
	popq	%rbp
	.cfi_def_cfa 7, 8
	ret
	.cfi_endproc
.LFE1682:
	.size	_ZNSt8__detail15_Hash_node_baseC2Ev, .-_ZNSt8__detail15_Hash_node_baseC2Ev
	.weak	_ZNSt8__detail15_Hash_node_baseC1Ev
	.set	_ZNSt8__detail15_Hash_node_baseC1Ev,_ZNSt8__detail15_Hash_node_baseC2Ev
	.section	.text._ZNKSt8__detail18_Mod_range_hashingclEmm,"axG",@progbits,_ZNKSt8__detail18_Mod_range_hashingclEmm,comdat
	.align 2
	.weak	_ZNKSt8__detail18_Mod_range_hashingclEmm
	.type	_ZNKSt8__detail18_Mod_range_hashingclEmm, @function
_ZNKSt8__detail18_Mod_range_hashingclEmm:
.LFB1708:
	.cfi_startproc
	endbr64
	pushq	%rbp
	.cfi_def_cfa_offset 16
	.cfi_offset 6, -16
	movq	%rsp, %rbp
	.cfi_def_cfa_register 6
	movq	%rdi, -8(%rbp)
	movq	%rsi, -16(%rbp)
	movq	%rdx, -24(%rbp)
	movq	-16(%rbp), %rax
	movl	$0, %edx
	divq	-24(%rbp)
	movq	%rdx, %rax
	popq	%rbp
	.cfi_def_cfa 7, 8
	ret
	.cfi_endproc
.LFE1708:
	.size	_ZNKSt8__detail18_Mod_range_hashingclEmm, .-_ZNKSt8__detail18_Mod_range_hashingclEmm
	.section	.text._ZNSt8__detail20_Prime_rehash_policyC2Ef,"axG",@progbits,_ZNSt8__detail20_Prime_rehash_policyC5Ef,comdat
	.align 2
	.weak	_ZNSt8__detail20_Prime_rehash_policyC2Ef
	.type	_ZNSt8__detail20_Prime_rehash_policyC2Ef, @function
_ZNSt8__detail20_Prime_rehash_policyC2Ef:
.LFB1710:
	.cfi_startproc
	endbr64
	pushq	%rbp
	.cfi_def_cfa_offset 16
	.cfi_offset 6, -16
	movq	%rsp, %rbp
	.cfi_def_cfa_register 6
	movq	%rdi, -8(%rbp)
	movss	%xmm0, -12(%rbp)
	movq	-8(%rbp), %rax
	movss	-12(%rbp), %xmm0
	movss	%xmm0, (%rax)
	movq	-8(%rbp), %rax
	movq	$0, 8(%rax)
	nop
	popq	%rbp
	.cfi_def_cfa 7, 8
	ret
	.cfi_endproc
.LFE1710:
	.size	_ZNSt8__detail20_Prime_rehash_policyC2Ef, .-_ZNSt8__detail20_Prime_rehash_policyC2Ef
	.weak	_ZNSt8__detail20_Prime_rehash_policyC1Ef
	.set	_ZNSt8__detail20_Prime_rehash_policyC1Ef,_ZNSt8__detail20_Prime_rehash_policyC2Ef
	.section	.text._ZNKSt8__detail20_Prime_rehash_policy8_M_stateEv,"axG",@progbits,_ZNKSt8__detail20_Prime_rehash_policy8_M_stateEv,comdat
	.align 2
	.weak	_ZNKSt8__detail20_Prime_rehash_policy8_M_stateEv
	.type	_ZNKSt8__detail20_Prime_rehash_policy8_M_stateEv, @function
_ZNKSt8__detail20_Prime_rehash_policy8_M_stateEv:
.LFB1714:
	.cfi_startproc
	endbr64
	pushq	%rbp
	.cfi_def_cfa_offset 16
	.cfi_offset 6, -16
	movq	%rsp, %rbp
	.cfi_def_cfa_register 6
	movq	%rdi, -8(%rbp)
	movq	-8(%rbp), %rax
	movq	8(%rax), %rax
	popq	%rbp
	.cfi_def_cfa 7, 8
	ret
	.cfi_endproc
.LFE1714:
	.size	_ZNKSt8__detail20_Prime_rehash_policy8_M_stateEv, .-_ZNKSt8__detail20_Prime_rehash_policy8_M_stateEv
	.section	.text._ZNSt8__detail20_Prime_rehash_policy8_M_resetEm,"axG",@progbits,_ZNSt8__detail20_Prime_rehash_policy8_M_resetEm,comdat
	.align 2
	.weak	_ZNSt8__detail20_Prime_rehash_policy8_M_resetEm
	.type	_ZNSt8__detail20_Prime_rehash_policy8_M_resetEm, @function
_ZNSt8__detail20_Prime_rehash_policy8_M_resetEm:
.LFB1716:
	.cfi_startproc
	endbr64
	pushq	%rbp
	.cfi_def_cfa_offset 16
	.cfi_offset 6, -16
	movq	%rsp, %rbp
	.cfi_def_cfa_register 6
	movq	%rdi, -8(%rbp)
	movq	%rsi, -16(%rbp)
	movq	-8(%rbp), %rax
	movq	-16(%rbp), %rdx
	movq	%rdx, 8(%rax)
	nop
	popq	%rbp
	.cfi_def_cfa 7, 8
	ret
	.cfi_endproc
.LFE1716:
	.size	_ZNSt8__detail20_Prime_rehash_policy8_M_resetEm, .-_ZNSt8__detail20_Prime_rehash_policy8_M_resetEm
	.section	.text._ZSt3minImERKT_S2_S2_,"axG",@progbits,_ZSt3minImERKT_S2_S2_,comdat
	.weak	_ZSt3minImERKT_S2_S2_
	.type	_ZSt3minImERKT_S2_S2_, @function
_ZSt3minImERKT_S2_S2_:
.LFB1724:
	.cfi_startproc
	endbr64
	pushq	%rbp
	.cfi_def_cfa_offset 16
	.cfi_offset 6, -16
	movq	%rsp, %rbp
	.cfi_def_cfa_register 6
	movq	%rdi, -8(%rbp)
	movq	%rsi, -16(%rbp)
	movq	-16(%rbp), %rax
	movq	(%rax), %rdx
	movq	-8(%rbp), %rax
	movq	(%rax), %rax
	cmpq	%rax, %rdx
	jnb	.L24
	movq	-16(%rbp), %rax
	jmp	.L25
.L24:
	movq	-8(%rbp), %rax
.L25:
	popq	%rbp
	.cfi_def_cfa 7, 8
	ret
	.cfi_endproc
.LFE1724:
	.size	_ZSt3minImERKT_S2_S2_, .-_ZSt3minImERKT_S2_S2_
	.weak	_ZSt7nullopt
	.section	.rodata._ZSt7nullopt,"aG",@progbits,_ZSt7nullopt,comdat
	.type	_ZSt7nullopt, @gnu_unique_object
	.size	_ZSt7nullopt, 1
_ZSt7nullopt:
	.zero	1
	.section	.rodata
.LC0:
	.string	"bad optional access"
	.section	.text._ZNKSt19bad_optional_access4whatEv,"axG",@progbits,_ZNKSt19bad_optional_access4whatEv,comdat
	.align 2
	.weak	_ZNKSt19bad_optional_access4whatEv
	.type	_ZNKSt19bad_optional_access4whatEv, @function
_ZNKSt19bad_optional_access4whatEv:
.LFB2744:
	.cfi_startproc
	endbr64
	pushq	%rbp
	.cfi_def_cfa_offset 16
	.cfi_offset 6, -16
	movq	%rsp, %rbp
	.cfi_def_cfa_register 6
	movq	%rdi, -8(%rbp)
	leaq	.LC0(%rip), %rax
	popq	%rbp
	.cfi_def_cfa 7, 8
	ret
	.cfi_endproc
.LFE2744:
	.size	_ZNKSt19bad_optional_access4whatEv, .-_ZNKSt19bad_optional_access4whatEv
	.section	.text._ZNSt19bad_optional_accessC2Ev,"axG",@progbits,_ZNSt19bad_optional_accessC5Ev,comdat
	.align 2
	.weak	_ZNSt19bad_optional_accessC2Ev
	.type	_ZNSt19bad_optional_accessC2Ev, @function
_ZNSt19bad_optional_accessC2Ev:
.LFB2747:
	.cfi_startproc
	endbr64
	pushq	%rbp
	.cfi_def_cfa_offset 16
	.cfi_offset 6, -16
	movq	%rsp, %rbp
	.cfi_def_cfa_register 6
	subq	$16, %rsp
	movq	%rdi, -8(%rbp)
	movq	-8(%rbp), %rax
	movq	%rax, %rdi
	call	_ZNSt9exceptionC2Ev
	leaq	16+_ZTVSt19bad_optional_access(%rip), %rdx
	movq	-8(%rbp), %rax
	movq	%rdx, (%rax)
	nop
	leave
	.cfi_def_cfa 7, 8
	ret
	.cfi_endproc
.LFE2747:
	.size	_ZNSt19bad_optional_accessC2Ev, .-_ZNSt19bad_optional_accessC2Ev
	.weak	_ZNSt19bad_optional_accessC1Ev
	.set	_ZNSt19bad_optional_accessC1Ev,_ZNSt19bad_optional_accessC2Ev
	.section	.text._ZSt27__throw_bad_optional_accessv,"axG",@progbits,_ZSt27__throw_bad_optional_accessv,comdat
	.weak	_ZSt27__throw_bad_optional_accessv
	.type	_ZSt27__throw_bad_optional_accessv, @function
_ZSt27__throw_bad_optional_accessv:
.LFB2745:
	.cfi_startproc
	endbr64
	pushq	%rbp
	.cfi_def_cfa_offset 16
	.cfi_offset 6, -16
	movq	%rsp, %rbp
	.cfi_def_cfa_register 6
	pushq	%rbx
	subq	$8, %rsp
	.cfi_offset 3, -24
	movl	$8, %edi
	call	__cxa_allocate_exception@PLT
	movq	%rax, %rbx
	movq	$0, (%rbx)
	movq	%rbx, %rdi
	call	_ZNSt19bad_optional_accessC1Ev
	leaq	_ZNSt19bad_optional_accessD1Ev(%rip), %rax
	movq	%rax, %rdx
	leaq	_ZTISt19bad_optional_access(%rip), %rax
	movq	%rax, %rsi
	movq	%rbx, %rdi
	call	__cxa_throw@PLT
	.cfi_endproc
.LFE2745:
	.size	_ZSt27__throw_bad_optional_accessv, .-_ZSt27__throw_bad_optional_accessv
	.section	.text._ZNSt11char_traitsIcE2ltERKcS2_,"axG",@progbits,_ZNSt11char_traitsIcE2ltERKcS2_,comdat
	.weak	_ZNSt11char_traitsIcE2ltERKcS2_
	.type	_ZNSt11char_traitsIcE2ltERKcS2_, @function
_ZNSt11char_traitsIcE2ltERKcS2_:
.LFB2875:
	.cfi_startproc
	endbr64
	pushq	%rbp
	.cfi_def_cfa_offset 16
	.cfi_offset 6, -16
	movq	%rsp, %rbp
	.cfi_def_cfa_register 6
	movq	%rdi, -8(%rbp)
	movq	%rsi, -16(%rbp)
	movq	-8(%rbp), %rax
	movzbl	(%rax), %eax
	movl	%eax, %edx
	movq	-16(%rbp), %rax
	movzbl	(%rax), %eax
	cmpb	%al, %dl
	setb	%al
	popq	%rbp
	.cfi_def_cfa 7, 8
	ret
	.cfi_endproc
.LFE2875:
	.size	_ZNSt11char_traitsIcE2ltERKcS2_, .-_ZNSt11char_traitsIcE2ltERKcS2_
	.section	.text._ZNSt11char_traitsIcE7compareEPKcS2_m,"axG",@progbits,_ZNSt11char_traitsIcE7compareEPKcS2_m,comdat
	.weak	_ZNSt11char_traitsIcE7compareEPKcS2_m
	.type	_ZNSt11char_traitsIcE7compareEPKcS2_m, @function
_ZNSt11char_traitsIcE7compareEPKcS2_m:
.LFB2876:
	.cfi_startproc
	endbr64
	pushq	%rbp
	.cfi_def_cfa_offset 16
	.cfi_offset 6, -16
	movq	%rsp, %rbp
	.cfi_def_cfa_register 6
	subq	$48, %rsp
	movq	%rdi, -24(%rbp)
	movq	%rsi, -32(%rbp)
	movq	%rdx, -40(%rbp)
	cmpq	$0, -40(%rbp)
	jne	.L33
	movl	$0, %eax
	jmp	.L34
.L33:
	movl	$0, %eax
	testb	%al, %al
	je	.L35
	movq	$0, -8(%rbp)
	jmp	.L36
.L39:
	movq	-32(%rbp), %rdx
	movq	-8(%rbp), %rax
	addq	%rax, %rdx
	movq	-24(%rbp), %rcx
	movq	-8(%rbp), %rax
	addq	%rcx, %rax
	movq	%rdx, %rsi
	movq	%rax, %rdi
	call	_ZNSt11char_traitsIcE2ltERKcS2_
	testb	%al, %al
	je	.L37
	movl	$-1, %eax
	jmp	.L34
.L37:
	movq	-24(%rbp), %rdx
	movq	-8(%rbp), %rax
	addq	%rax, %rdx
	movq	-32(%rbp), %rcx
	movq	-8(%rbp), %rax
	addq	%rcx, %rax
	movq	%rdx, %rsi
	movq	%rax, %rdi
	call	_ZNSt11char_traitsIcE2ltERKcS2_
	testb	%al, %al
	je	.L38
	movl	$1, %eax
	jmp	.L34
.L38:
	addq	$1, -8(%rbp)
.L36:
	movq	-8(%rbp), %rax
	cmpq	-40(%rbp), %rax
	jb	.L39
	movl	$0, %eax
	jmp	.L34
.L35:
	movq	-40(%rbp), %rdx
	movq	-32(%rbp), %rcx
	movq	-24(%rbp), %rax
	movq	%rcx, %rsi
	movq	%rax, %rdi
	call	memcmp@PLT
	nop
.L34:
	leave
	.cfi_def_cfa 7, 8
	ret
	.cfi_endproc
.LFE2876:
	.size	_ZNSt11char_traitsIcE7compareEPKcS2_m, .-_ZNSt11char_traitsIcE7compareEPKcS2_m
	.section	.text._ZNSt11char_traitsIcE6lengthEPKc,"axG",@progbits,_ZNSt11char_traitsIcE6lengthEPKc,comdat
	.weak	_ZNSt11char_traitsIcE6lengthEPKc
	.type	_ZNSt11char_traitsIcE6lengthEPKc, @function
_ZNSt11char_traitsIcE6lengthEPKc:
.LFB2878:
	.cfi_startproc
	endbr64
	pushq	%rbp
	.cfi_def_cfa_offset 16
	.cfi_offset 6, -16
	movq	%rsp, %rbp
	.cfi_def_cfa_register 6
	subq	$32, %rsp
	movq	%rdi, -24(%rbp)
	movq	-24(%rbp), %rax
	movq	%rax, -8(%rbp)
	movl	$0, %eax
	testb	%al, %al
	je	.L42
	movq	-24(%rbp), %rax
	movq	%rax, %rdi
	call	_ZN9__gnu_cxx11char_traitsIcE6lengthEPKc
	jmp	.L43
.L42:
	movq	-24(%rbp), %rax
	movq	%rax, %rdi
	call	strlen@PLT
	nop
.L43:
	leave
	.cfi_def_cfa 7, 8
	ret
	.cfi_endproc
.LFE2878:
	.size	_ZNSt11char_traitsIcE6lengthEPKc, .-_ZNSt11char_traitsIcE6lengthEPKc
	.section	.text._ZNSt7__cxx119to_stringEi,"axG",@progbits,_ZNSt7__cxx119to_stringEi,comdat
	.weak	_ZNSt7__cxx119to_stringEi
	.type	_ZNSt7__cxx119to_stringEi, @function
_ZNSt7__cxx119to_stringEi:
.LFB3253:
	.cfi_startproc
	.cfi_personality 0x9b,DW.ref.__gxx_personality_v0
	.cfi_lsda 0x1b,.LLSDA3253
	endbr64
	pushq	%rbp
	.cfi_def_cfa_offset 16
	.cfi_offset 6, -16
	movq	%rsp, %rbp
	.cfi_def_cfa_register 6
	pushq	%rbx
	subq	$56, %rsp
	.cfi_offset 3, -24
	movq	%rdi, -56(%rbp)
	movl	%esi, -60(%rbp)
	movq	%fs:40, %rax
	movq	%rax, -24(%rbp)
	xorl	%eax, %eax
	movl	-60(%rbp), %eax
	shrl	$31, %eax
	movb	%al, -33(%rbp)
	cmpb	$0, -33(%rbp)
	je	.L45
	movl	-60(%rbp), %eax
	negl	%eax
	jmp	.L46
.L45:
	movl	-60(%rbp), %eax
.L46:
	movl	%eax, -32(%rbp)
	movl	-32(%rbp), %eax
	movl	$10, %esi
	movl	%eax, %edi
	call	_ZNSt8__detail14__to_chars_lenIjEEjT_i
	movl	%eax, -28(%rbp)
	leaq	-34(%rbp), %rax
	movq	%rax, %rdi
	call	_ZNSaIcEC1Ev@PLT
	movzbl	-33(%rbp), %edx
	movl	-28(%rbp), %eax
	addl	%edx, %eax
	movl	%eax, %esi
	leaq	-34(%rbp), %rdx
	movq	-56(%rbp), %rax
	movq	%rdx, %rcx
	movl	$45, %edx
	movq	%rax, %rdi
.LEHB0:
	call	_ZNSt7__cxx1112basic_stringIcSt11char_traitsIcESaIcEEC1IS3_EEmcRKS3_
.LEHE0:
	leaq	-34(%rbp), %rax
	movq	%rax, %rdi
	call	_ZNSaIcED1Ev@PLT
	movzbl	-33(%rbp), %edx
	movq	-56(%rbp), %rax
	movq	%rdx, %rsi
	movq	%rax, %rdi
.LEHB1:
	call	_ZNSt7__cxx1112basic_stringIcSt11char_traitsIcESaIcEEixEm@PLT
.LEHE1:
	movq	%rax, %rcx
	movl	-32(%rbp), %edx
	movl	-28(%rbp), %eax
	movl	%eax, %esi
	movq	%rcx, %rdi
	call	_ZNSt8__detail18__to_chars_10_implIjEEvPcjT_
	nop
	movq	-24(%rbp), %rax
	subq	%fs:40, %rax
	je	.L50
	jmp	.L53
.L51:
	endbr64
	movq	%rax, %rbx
	leaq	-34(%rbp), %rax
	movq	%rax, %rdi
	call	_ZNSaIcED1Ev@PLT
	movq	%rbx, %rax
	movq	%rax, %rdi
.LEHB2:
	call	_Unwind_Resume@PLT
.L52:
	endbr64
	movq	%rax, %rbx
	movq	-56(%rbp), %rax
	movq	%rax, %rdi
	call	_ZNSt7__cxx1112basic_stringIcSt11char_traitsIcESaIcEED1Ev@PLT
	movq	%rbx, %rax
	movq	%rax, %rdi
	call	_Unwind_Resume@PLT
.LEHE2:
.L53:
	call	__stack_chk_fail@PLT
.L50:
	movq	-56(%rbp), %rax
	movq	-8(%rbp), %rbx
	leave
	.cfi_def_cfa 7, 8
	ret
	.cfi_endproc
.LFE3253:
	.section	.gcc_except_table._ZNSt7__cxx119to_stringEi,"aG",@progbits,_ZNSt7__cxx119to_stringEi,comdat
.LLSDA3253:
	.byte	0xff
	.byte	0xff
	.byte	0x1
	.uleb128 .LLSDACSE3253-.LLSDACSB3253
.LLSDACSB3253:
	.uleb128 .LEHB0-.LFB3253
	.uleb128 .LEHE0-.LEHB0
	.uleb128 .L51-.LFB3253
	.uleb128 0
	.uleb128 .LEHB1-.LFB3253
	.uleb128 .LEHE1-.LEHB1
	.uleb128 .L52-.LFB3253
	.uleb128 0
	.uleb128 .LEHB2-.LFB3253
	.uleb128 .LEHE2-.LEHB2
	.uleb128 0
	.uleb128 0
.LLSDACSE3253:
	.section	.text._ZNSt7__cxx119to_stringEi,"axG",@progbits,_ZNSt7__cxx119to_stringEi,comdat
	.size	_ZNSt7__cxx119to_stringEi, .-_ZNSt7__cxx119to_stringEi
	.section	.text._ZNSt8__detail14__to_chars_lenIjEEjT_i,"axG",@progbits,_ZNSt8__detail14__to_chars_lenIjEEjT_i,comdat
	.weak	_ZNSt8__detail14__to_chars_lenIjEEjT_i
	.type	_ZNSt8__detail14__to_chars_lenIjEEjT_i, @function
_ZNSt8__detail14__to_chars_lenIjEEjT_i:
.LFB3255:
	.cfi_startproc
	endbr64
	pushq	%rbp
	.cfi_def_cfa_offset 16
	.cfi_offset 6, -16
	movq	%rsp, %rbp
	.cfi_def_cfa_register 6
	movl	%edi, -36(%rbp)
	movl	%esi, -40(%rbp)
	movl	$1, -20(%rbp)
	movl	-40(%rbp), %eax
	imull	%eax, %eax
	movl	%eax, -16(%rbp)
	movl	-40(%rbp), %eax
	movl	-16(%rbp), %edx
	imull	%edx, %eax
	movl	%eax, -12(%rbp)
	movl	-40(%rbp), %eax
	imull	-12(%rbp), %eax
	movl	%eax, %eax
	movq	%rax, -8(%rbp)
.L60:
	movl	-40(%rbp), %eax
	cmpl	%eax, -36(%rbp)
	jnb	.L55
	movl	-20(%rbp), %eax
	jmp	.L56
.L55:
	movl	-36(%rbp), %eax
	cmpl	-16(%rbp), %eax
	jnb	.L57
	movl	-20(%rbp), %eax
	addl	$1, %eax
	jmp	.L56
.L57:
	movl	-36(%rbp), %eax
	cmpl	-12(%rbp), %eax
	jnb	.L58
	movl	-20(%rbp), %eax
	addl	$2, %eax
	jmp	.L56
.L58:
	movl	-36(%rbp), %eax
	cmpq	%rax, -8(%rbp)
	jbe	.L59
	movl	-20(%rbp), %eax
	addl	$3, %eax
	jmp	.L56
.L59:
	movl	-36(%rbp), %eax
	movl	$0, %edx
	divq	-8(%rbp)
	movl	%eax, -36(%rbp)
	addl	$4, -20(%rbp)
	jmp	.L60
.L56:
	popq	%rbp
	.cfi_def_cfa 7, 8
	ret
	.cfi_endproc
.LFE3255:
	.size	_ZNSt8__detail14__to_chars_lenIjEEjT_i, .-_ZNSt8__detail14__to_chars_lenIjEEjT_i
	.section	.text._ZNKSt4hashINSt7__cxx1112basic_stringIcSt11char_traitsIcESaIcEEEEclERKS5_,"axG",@progbits,_ZNKSt4hashINSt7__cxx1112basic_stringIcSt11char_traitsIcESaIcEEEEclERKS5_,comdat
	.align 2
	.weak	_ZNKSt4hashINSt7__cxx1112basic_stringIcSt11char_traitsIcESaIcEEEEclERKS5_
	.type	_ZNKSt4hashINSt7__cxx1112basic_stringIcSt11char_traitsIcESaIcEEEEclERKS5_, @function
_ZNKSt4hashINSt7__cxx1112basic_stringIcSt11char_traitsIcESaIcEEEEclERKS5_:
.LFB3282:
	.cfi_startproc
	.cfi_personality 0x9b,DW.ref.__gxx_personality_v0
	.cfi_lsda 0x1b,.LLSDA3282
	endbr64
	pushq	%rbp
	.cfi_def_cfa_offset 16
	.cfi_offset 6, -16
	movq	%rsp, %rbp
	.cfi_def_cfa_register 6
	pushq	%rbx
	subq	$24, %rsp
	.cfi_offset 3, -24
	movq	%rdi, -24(%rbp)
	movq	%rsi, -32(%rbp)
	movq	-32(%rbp), %rax
	movq	%rax, %rdi
	call	_ZNKSt7__cxx1112basic_stringIcSt11char_traitsIcESaIcEE6lengthEv@PLT
	movq	%rax, %rbx
	movq	-32(%rbp), %rax
	movq	%rax, %rdi
	call	_ZNKSt7__cxx1112basic_stringIcSt11char_traitsIcESaIcEE4dataEv@PLT
	movq	%rax, %rcx
	movl	$3339675911, %eax
	movq	%rax, %rdx
	movq	%rbx, %rsi
	movq	%rcx, %rdi
	call	_ZNSt10_Hash_impl4hashEPKvmm
	movq	-8(%rbp), %rbx
	leave
	.cfi_def_cfa 7, 8
	ret
	.cfi_endproc
.LFE3282:
	.section	.gcc_except_table._ZNKSt4hashINSt7__cxx1112basic_stringIcSt11char_traitsIcESaIcEEEEclERKS5_,"aG",@progbits,_ZNKSt4hashINSt7__cxx1112basic_stringIcSt11char_traitsIcESaIcEEEEclERKS5_,comdat
.LLSDA3282:
	.byte	0xff
	.byte	0xff
	.byte	0x1
	.uleb128 .LLSDACSE3282-.LLSDACSB3282
.LLSDACSB3282:
.LLSDACSE3282:
	.section	.text._ZNKSt4hashINSt7__cxx1112basic_stringIcSt11char_traitsIcESaIcEEEEclERKS5_,"axG",@progbits,_ZNKSt4hashINSt7__cxx1112basic_stringIcSt11char_traitsIcESaIcEEEEclERKS5_,comdat
	.size	_ZNKSt4hashINSt7__cxx1112basic_stringIcSt11char_traitsIcESaIcEEEEclERKS5_, .-_ZNKSt4hashINSt7__cxx1112basic_stringIcSt11char_traitsIcESaIcEEEEclERKS5_
	.section	.text._ZNSt14_Optional_baseINSt7__cxx1112basic_stringIcSt11char_traitsIcESaIcEEELb0ELb0EED2Ev,"axG",@progbits,_ZNSt14_Optional_baseINSt7__cxx1112basic_stringIcSt11char_traitsIcESaIcEEELb0ELb0EED5Ev,comdat
	.align 2
	.weak	_ZNSt14_Optional_baseINSt7__cxx1112basic_stringIcSt11char_traitsIcESaIcEEELb0ELb0EED2Ev
	.type	_ZNSt14_Optional_baseINSt7__cxx1112basic_stringIcSt11char_traitsIcESaIcEEELb0ELb0EED2Ev, @function
_ZNSt14_Optional_baseINSt7__cxx1112basic_stringIcSt11char_traitsIcESaIcEEELb0ELb0EED2Ev:
.LFB3333:
	.cfi_startproc
	endbr64
	pushq	%rbp
	.cfi_def_cfa_offset 16
	.cfi_offset 6, -16
	movq	%rsp, %rbp
	.cfi_def_cfa_register 6
	subq	$16, %rsp
	movq	%rdi, -8(%rbp)
	movq	-8(%rbp), %rax
	movq	%rax, %rdi
	call	_ZNSt17_Optional_payloadINSt7__cxx1112basic_stringIcSt11char_traitsIcESaIcEEELb0ELb0ELb0EED1Ev
	nop
	leave
	.cfi_def_cfa 7, 8
	ret
	.cfi_endproc
.LFE3333:
	.size	_ZNSt14_Optional_baseINSt7__cxx1112basic_stringIcSt11char_traitsIcESaIcEEELb0ELb0EED2Ev, .-_ZNSt14_Optional_baseINSt7__cxx1112basic_stringIcSt11char_traitsIcESaIcEEELb0ELb0EED2Ev
	.weak	_ZNSt14_Optional_baseINSt7__cxx1112basic_stringIcSt11char_traitsIcESaIcEEELb0ELb0EED1Ev
	.set	_ZNSt14_Optional_baseINSt7__cxx1112basic_stringIcSt11char_traitsIcESaIcEEELb0ELb0EED1Ev,_ZNSt14_Optional_baseINSt7__cxx1112basic_stringIcSt11char_traitsIcESaIcEEELb0ELb0EED2Ev
	.section	.text._ZNSt8optionalINSt7__cxx1112basic_stringIcSt11char_traitsIcESaIcEEEED2Ev,"axG",@progbits,_ZNSt8optionalINSt7__cxx1112basic_stringIcSt11char_traitsIcESaIcEEEED5Ev,comdat
	.align 2
	.weak	_ZNSt8optionalINSt7__cxx1112basic_stringIcSt11char_traitsIcESaIcEEEED2Ev
	.type	_ZNSt8optionalINSt7__cxx1112basic_stringIcSt11char_traitsIcESaIcEEEED2Ev, @function
_ZNSt8optionalINSt7__cxx1112basic_stringIcSt11char_traitsIcESaIcEEEED2Ev:
.LFB3335:
	.cfi_startproc
	endbr64
	pushq	%rbp
	.cfi_def_cfa_offset 16
	.cfi_offset 6, -16
	movq	%rsp, %rbp
	.cfi_def_cfa_register 6
	subq	$16, %rsp
	movq	%rdi, -8(%rbp)
	movq	-8(%rbp), %rax
	movq	%rax, %rdi
	call	_ZNSt14_Optional_baseINSt7__cxx1112basic_stringIcSt11char_traitsIcESaIcEEELb0ELb0EED2Ev
	nop
	leave
	.cfi_def_cfa 7, 8
	ret
	.cfi_endproc
.LFE3335:
	.size	_ZNSt8optionalINSt7__cxx1112basic_stringIcSt11char_traitsIcESaIcEEEED2Ev, .-_ZNSt8optionalINSt7__cxx1112basic_stringIcSt11char_traitsIcESaIcEEEED2Ev
	.weak	_ZNSt8optionalINSt7__cxx1112basic_stringIcSt11char_traitsIcESaIcEEEED1Ev
	.set	_ZNSt8optionalINSt7__cxx1112basic_stringIcSt11char_traitsIcESaIcEEEED1Ev,_ZNSt8optionalINSt7__cxx1112basic_stringIcSt11char_traitsIcESaIcEEEED2Ev
	.section	.text._ZN3bbt6cxxlua6detail6LuaErrC2Ev,"axG",@progbits,_ZN3bbt6cxxlua6detail6LuaErrC5Ev,comdat
	.align 2
	.weak	_ZN3bbt6cxxlua6detail6LuaErrC2Ev
	.type	_ZN3bbt6cxxlua6detail6LuaErrC2Ev, @function
_ZN3bbt6cxxlua6detail6LuaErrC2Ev:
.LFB3337:
	.cfi_startproc
	endbr64
	pushq	%rbp
	.cfi_def_cfa_offset 16
	.cfi_offset 6, -16
	movq	%rsp, %rbp
	.cfi_def_cfa_register 6
	subq	$16, %rsp
	movq	%rdi, -8(%rbp)
	movq	-8(%rbp), %rax
	movq	%rax, %rdi
	call	_ZNSt8optionalINSt7__cxx1112basic_stringIcSt11char_traitsIcESaIcEEEEC1ESt9nullopt_t
	movq	-8(%rbp), %rax
	movl	$0, 40(%rax)
	nop
	leave
	.cfi_def_cfa 7, 8
	ret
	.cfi_endproc
.LFE3337:
	.size	_ZN3bbt6cxxlua6detail6LuaErrC2Ev, .-_ZN3bbt6cxxlua6detail6LuaErrC2Ev
	.weak	_ZN3bbt6cxxlua6detail6LuaErrC1Ev
	.set	_ZN3bbt6cxxlua6detail6LuaErrC1Ev,_ZN3bbt6cxxlua6detail6LuaErrC2Ev
	.section	.text._ZN3bbt6cxxlua6detail6LuaErrC2EPKcNS0_7ERRCODEE,"axG",@progbits,_ZN3bbt6cxxlua6detail6LuaErrC5EPKcNS0_7ERRCODEE,comdat
	.align 2
	.weak	_ZN3bbt6cxxlua6detail6LuaErrC2EPKcNS0_7ERRCODEE
	.type	_ZN3bbt6cxxlua6detail6LuaErrC2EPKcNS0_7ERRCODEE, @function
_ZN3bbt6cxxlua6detail6LuaErrC2EPKcNS0_7ERRCODEE:
.LFB3341:
	.cfi_startproc
	endbr64
	pushq	%rbp
	.cfi_def_cfa_offset 16
	.cfi_offset 6, -16
	movq	%rsp, %rbp
	.cfi_def_cfa_register 6
	subq	$32, %rsp
	movq	%rdi, -8(%rbp)
	movq	%rsi, -16(%rbp)
	movl	%edx, -20(%rbp)
	movq	-8(%rbp), %rax
	leaq	-16(%rbp), %rdx
	movq	%rdx, %rsi
	movq	%rax, %rdi
	call	_ZNSt8optionalINSt7__cxx1112basic_stringIcSt11char_traitsIcESaIcEEEEC1IRPKcLb1EEEOT_
	movq	-8(%rbp), %rax
	movl	-20(%rbp), %edx
	movl	%edx, 40(%rax)
	nop
	leave
	.cfi_def_cfa 7, 8
	ret
	.cfi_endproc
.LFE3341:
	.size	_ZN3bbt6cxxlua6detail6LuaErrC2EPKcNS0_7ERRCODEE, .-_ZN3bbt6cxxlua6detail6LuaErrC2EPKcNS0_7ERRCODEE
	.weak	_ZN3bbt6cxxlua6detail6LuaErrC1EPKcNS0_7ERRCODEE
	.set	_ZN3bbt6cxxlua6detail6LuaErrC1EPKcNS0_7ERRCODEE,_ZN3bbt6cxxlua6detail6LuaErrC2EPKcNS0_7ERRCODEE
	.section	.text._ZN3bbt6cxxlua6detail6LuaErrC2ERKNSt7__cxx1112basic_stringIcSt11char_traitsIcESaIcEEENS0_7ERRCODEE,"axG",@progbits,_ZN3bbt6cxxlua6detail6LuaErrC5ERKNSt7__cxx1112basic_stringIcSt11char_traitsIcESaIcEEENS0_7ERRCODEE,comdat
	.align 2
	.weak	_ZN3bbt6cxxlua6detail6LuaErrC2ERKNSt7__cxx1112basic_stringIcSt11char_traitsIcESaIcEEENS0_7ERRCODEE
	.type	_ZN3bbt6cxxlua6detail6LuaErrC2ERKNSt7__cxx1112basic_stringIcSt11char_traitsIcESaIcEEENS0_7ERRCODEE, @function
_ZN3bbt6cxxlua6detail6LuaErrC2ERKNSt7__cxx1112basic_stringIcSt11char_traitsIcESaIcEEENS0_7ERRCODEE:
.LFB3344:
	.cfi_startproc
	endbr64
	pushq	%rbp
	.cfi_def_cfa_offset 16
	.cfi_offset 6, -16
	movq	%rsp, %rbp
	.cfi_def_cfa_register 6
	subq	$32, %rsp
	movq	%rdi, -8(%rbp)
	movq	%rsi, -16(%rbp)
	movl	%edx, -20(%rbp)
	movq	-8(%rbp), %rax
	movq	-16(%rbp), %rdx
	movq	%rdx, %rsi
	movq	%rax, %rdi
	call	_ZNSt8optionalINSt7__cxx1112basic_stringIcSt11char_traitsIcESaIcEEEEC1IRKS5_Lb1EEEOT_
	movq	-8(%rbp), %rax
	movl	-20(%rbp), %edx
	movl	%edx, 40(%rax)
	nop
	leave
	.cfi_def_cfa 7, 8
	ret
	.cfi_endproc
.LFE3344:
	.size	_ZN3bbt6cxxlua6detail6LuaErrC2ERKNSt7__cxx1112basic_stringIcSt11char_traitsIcESaIcEEENS0_7ERRCODEE, .-_ZN3bbt6cxxlua6detail6LuaErrC2ERKNSt7__cxx1112basic_stringIcSt11char_traitsIcESaIcEEENS0_7ERRCODEE
	.weak	_ZN3bbt6cxxlua6detail6LuaErrC1ERKNSt7__cxx1112basic_stringIcSt11char_traitsIcESaIcEEENS0_7ERRCODEE
	.set	_ZN3bbt6cxxlua6detail6LuaErrC1ERKNSt7__cxx1112basic_stringIcSt11char_traitsIcESaIcEEENS0_7ERRCODEE,_ZN3bbt6cxxlua6detail6LuaErrC2ERKNSt7__cxx1112basic_stringIcSt11char_traitsIcESaIcEEENS0_7ERRCODEE
	.section	.text._ZNSt8optionalINSt7__cxx1112basic_stringIcSt11char_traitsIcESaIcEEEEC2EOS6_,"axG",@progbits,_ZNSt8optionalINSt7__cxx1112basic_stringIcSt11char_traitsIcESaIcEEEEC5EOS6_,comdat
	.align 2
	.weak	_ZNSt8optionalINSt7__cxx1112basic_stringIcSt11char_traitsIcESaIcEEEEC2EOS6_
	.type	_ZNSt8optionalINSt7__cxx1112basic_stringIcSt11char_traitsIcESaIcEEEEC2EOS6_, @function
_ZNSt8optionalINSt7__cxx1112basic_stringIcSt11char_traitsIcESaIcEEEEC2EOS6_:
.LFB3348:
	.cfi_startproc
	endbr64
	pushq	%rbp
	.cfi_def_cfa_offset 16
	.cfi_offset 6, -16
	movq	%rsp, %rbp
	.cfi_def_cfa_register 6
	subq	$16, %rsp
	movq	%rdi, -8(%rbp)
	movq	%rsi, -16(%rbp)
	movq	-8(%rbp), %rax
	movq	-16(%rbp), %rdx
	movq	%rdx, %rsi
	movq	%rax, %rdi
	call	_ZNSt14_Optional_baseINSt7__cxx1112basic_stringIcSt11char_traitsIcESaIcEEELb0ELb0EEC2EOS6_
	nop
	leave
	.cfi_def_cfa 7, 8
	ret
	.cfi_endproc
.LFE3348:
	.size	_ZNSt8optionalINSt7__cxx1112basic_stringIcSt11char_traitsIcESaIcEEEEC2EOS6_, .-_ZNSt8optionalINSt7__cxx1112basic_stringIcSt11char_traitsIcESaIcEEEEC2EOS6_
	.weak	_ZNSt8optionalINSt7__cxx1112basic_stringIcSt11char_traitsIcESaIcEEEEC1EOS6_
	.set	_ZNSt8optionalINSt7__cxx1112basic_stringIcSt11char_traitsIcESaIcEEEEC1EOS6_,_ZNSt8optionalINSt7__cxx1112basic_stringIcSt11char_traitsIcESaIcEEEEC2EOS6_
	.section	.text._ZN3bbt6cxxlua6detail6LuaErrC2EOS2_,"axG",@progbits,_ZN3bbt6cxxlua6detail6LuaErrC5EOS2_,comdat
	.align 2
	.weak	_ZN3bbt6cxxlua6detail6LuaErrC2EOS2_
	.type	_ZN3bbt6cxxlua6detail6LuaErrC2EOS2_, @function
_ZN3bbt6cxxlua6detail6LuaErrC2EOS2_:
.LFB3350:
	.cfi_startproc
	endbr64
	pushq	%rbp
	.cfi_def_cfa_offset 16
	.cfi_offset 6, -16
	movq	%rsp, %rbp
	.cfi_def_cfa_register 6
	pushq	%rbx
	subq	$24, %rsp
	.cfi_offset 3, -24
	movq	%rdi, -24(%rbp)
	movq	%rsi, -32(%rbp)
	movq	-24(%rbp), %rbx
	movq	-32(%rbp), %rax
	movq	%rax, %rdi
	call	_ZSt4moveIRSt8optionalINSt7__cxx1112basic_stringIcSt11char_traitsIcESaIcEEEEEONSt16remove_referenceIT_E4typeEOSA_
	movq	%rax, %rsi
	movq	%rbx, %rdi
	call	_ZNSt8optionalINSt7__cxx1112basic_stringIcSt11char_traitsIcESaIcEEEEC1EOS6_
	movq	-32(%rbp), %rax
	movl	40(%rax), %edx
	movq	-24(%rbp), %rax
	movl	%edx, 40(%rax)
	nop
	movq	-8(%rbp), %rbx
	leave
	.cfi_def_cfa 7, 8
	ret
	.cfi_endproc
.LFE3350:
	.size	_ZN3bbt6cxxlua6detail6LuaErrC2EOS2_, .-_ZN3bbt6cxxlua6detail6LuaErrC2EOS2_
	.weak	_ZN3bbt6cxxlua6detail6LuaErrC1EOS2_
	.set	_ZN3bbt6cxxlua6detail6LuaErrC1EOS2_,_ZN3bbt6cxxlua6detail6LuaErrC2EOS2_
	.section	.text._ZNSt8optionalINSt7__cxx1112basic_stringIcSt11char_traitsIcESaIcEEEEC2ERKS6_,"axG",@progbits,_ZNSt8optionalINSt7__cxx1112basic_stringIcSt11char_traitsIcESaIcEEEEC5ERKS6_,comdat
	.align 2
	.weak	_ZNSt8optionalINSt7__cxx1112basic_stringIcSt11char_traitsIcESaIcEEEEC2ERKS6_
	.type	_ZNSt8optionalINSt7__cxx1112basic_stringIcSt11char_traitsIcESaIcEEEEC2ERKS6_, @function
_ZNSt8optionalINSt7__cxx1112basic_stringIcSt11char_traitsIcESaIcEEEEC2ERKS6_:
.LFB3354:
	.cfi_startproc
	endbr64
	pushq	%rbp
	.cfi_def_cfa_offset 16
	.cfi_offset 6, -16
	movq	%rsp, %rbp
	.cfi_def_cfa_register 6
	subq	$16, %rsp
	movq	%rdi, -8(%rbp)
	movq	%rsi, -16(%rbp)
	movq	-8(%rbp), %rax
	movq	-16(%rbp), %rdx
	movq	%rdx, %rsi
	movq	%rax, %rdi
	call	_ZNSt14_Optional_baseINSt7__cxx1112basic_stringIcSt11char_traitsIcESaIcEEELb0ELb0EEC2ERKS6_
	nop
	leave
	.cfi_def_cfa 7, 8
	ret
	.cfi_endproc
.LFE3354:
	.size	_ZNSt8optionalINSt7__cxx1112basic_stringIcSt11char_traitsIcESaIcEEEEC2ERKS6_, .-_ZNSt8optionalINSt7__cxx1112basic_stringIcSt11char_traitsIcESaIcEEEEC2ERKS6_
	.weak	_ZNSt8optionalINSt7__cxx1112basic_stringIcSt11char_traitsIcESaIcEEEEC1ERKS6_
	.set	_ZNSt8optionalINSt7__cxx1112basic_stringIcSt11char_traitsIcESaIcEEEEC1ERKS6_,_ZNSt8optionalINSt7__cxx1112basic_stringIcSt11char_traitsIcESaIcEEEEC2ERKS6_
	.section	.text._ZN3bbt6cxxlua6detail6LuaErrC2ERKS2_,"axG",@progbits,_ZN3bbt6cxxlua6detail6LuaErrC5ERKS2_,comdat
	.align 2
	.weak	_ZN3bbt6cxxlua6detail6LuaErrC2ERKS2_
	.type	_ZN3bbt6cxxlua6detail6LuaErrC2ERKS2_, @function
_ZN3bbt6cxxlua6detail6LuaErrC2ERKS2_:
.LFB3356:
	.cfi_startproc
	endbr64
	pushq	%rbp
	.cfi_def_cfa_offset 16
	.cfi_offset 6, -16
	movq	%rsp, %rbp
	.cfi_def_cfa_register 6
	subq	$16, %rsp
	movq	%rdi, -8(%rbp)
	movq	%rsi, -16(%rbp)
	movq	-8(%rbp), %rax
	movq	-16(%rbp), %rdx
	movq	%rdx, %rsi
	movq	%rax, %rdi
	call	_ZNSt8optionalINSt7__cxx1112basic_stringIcSt11char_traitsIcESaIcEEEEC1ERKS6_
	movq	-16(%rbp), %rax
	movl	40(%rax), %edx
	movq	-8(%rbp), %rax
	movl	%edx, 40(%rax)
	nop
	leave
	.cfi_def_cfa 7, 8
	ret
	.cfi_endproc
.LFE3356:
	.size	_ZN3bbt6cxxlua6detail6LuaErrC2ERKS2_, .-_ZN3bbt6cxxlua6detail6LuaErrC2ERKS2_
	.weak	_ZN3bbt6cxxlua6detail6LuaErrC1ERKS2_
	.set	_ZN3bbt6cxxlua6detail6LuaErrC1ERKS2_,_ZN3bbt6cxxlua6detail6LuaErrC2ERKS2_
	.section	.text._ZN3bbt6cxxlua6detail6LuaErrD2Ev,"axG",@progbits,_ZN3bbt6cxxlua6detail6LuaErrD5Ev,comdat
	.align 2
	.weak	_ZN3bbt6cxxlua6detail6LuaErrD2Ev
	.type	_ZN3bbt6cxxlua6detail6LuaErrD2Ev, @function
_ZN3bbt6cxxlua6detail6LuaErrD2Ev:
.LFB3359:
	.cfi_startproc
	endbr64
	pushq	%rbp
	.cfi_def_cfa_offset 16
	.cfi_offset 6, -16
	movq	%rsp, %rbp
	.cfi_def_cfa_register 6
	subq	$16, %rsp
	movq	%rdi, -8(%rbp)
	movq	-8(%rbp), %rax
	movq	%rax, %rdi
	call	_ZNSt8optionalINSt7__cxx1112basic_stringIcSt11char_traitsIcESaIcEEEED1Ev
	nop
	leave
	.cfi_def_cfa 7, 8
	ret
	.cfi_endproc
.LFE3359:
	.size	_ZN3bbt6cxxlua6detail6LuaErrD2Ev, .-_ZN3bbt6cxxlua6detail6LuaErrD2Ev
	.weak	_ZN3bbt6cxxlua6detail6LuaErrD1Ev
	.set	_ZN3bbt6cxxlua6detail6LuaErrD1Ev,_ZN3bbt6cxxlua6detail6LuaErrD2Ev
	.section	.text._ZN3bbt6cxxlua6detail6LuaErr5ResetEPKcNS0_7ERRCODEE,"axG",@progbits,_ZN3bbt6cxxlua6detail6LuaErr5ResetEPKcNS0_7ERRCODEE,comdat
	.align 2
	.weak	_ZN3bbt6cxxlua6detail6LuaErr5ResetEPKcNS0_7ERRCODEE
	.type	_ZN3bbt6cxxlua6detail6LuaErr5ResetEPKcNS0_7ERRCODEE, @function
_ZN3bbt6cxxlua6detail6LuaErr5ResetEPKcNS0_7ERRCODEE:
.LFB3362:
	.cfi_startproc
	.cfi_personality 0x9b,DW.ref.__gxx_personality_v0
	.cfi_lsda 0x1b,.LLSDA3362
	endbr64
	pushq	%rbp
	.cfi_def_cfa_offset 16
	.cfi_offset 6, -16
	movq	%rsp, %rbp
	.cfi_def_cfa_register 6
	pushq	%rbx
	subq	$104, %rsp
	.cfi_offset 3, -24
	movq	%rdi, -88(%rbp)
	movq	%rsi, -96(%rbp)
	movl	%edx, -100(%rbp)
	movq	%fs:40, %rax
	movq	%rax, -24(%rbp)
	xorl	%eax, %eax
	leaq	-65(%rbp), %rax
	movq	%rax, %rdi
	call	_ZNSaIcEC1Ev@PLT
	leaq	-65(%rbp), %rdx
	movq	-96(%rbp), %rcx
	leaq	-64(%rbp), %rax
	movq	%rcx, %rsi
	movq	%rax, %rdi
.LEHB3:
	call	_ZNSt7__cxx1112basic_stringIcSt11char_traitsIcESaIcEEC1IS3_EEPKcRKS3_
.LEHE3:
	movq	-88(%rbp), %rax
	leaq	-64(%rbp), %rdx
	movq	%rdx, %rsi
	movq	%rax, %rdi
	call	_ZNSt8optionalINSt7__cxx1112basic_stringIcSt11char_traitsIcESaIcEEEEaSIS5_EENSt9enable_ifIX7__and_vISt6__not_ISt7is_sameIS6_NSt9remove_cvINSt16remove_referenceIT_E4typeEE4typeEEES9_ISt6__and_IJSt9is_scalarIS5_ESA_IS5_NSt5decayISD_E4typeEEEEESt16is_constructibleIS5_JSD_EESt13is_assignableIRS5_SD_EEERS6_E4typeEOSD_
	leaq	-64(%rbp), %rax
	movq	%rax, %rdi
	call	_ZNSt7__cxx1112basic_stringIcSt11char_traitsIcESaIcEED1Ev@PLT
	leaq	-65(%rbp), %rax
	movq	%rax, %rdi
	call	_ZNSaIcED1Ev@PLT
	movq	-88(%rbp), %rax
	movl	-100(%rbp), %edx
	movl	%edx, 40(%rax)
	nop
	movq	-24(%rbp), %rax
	subq	%fs:40, %rax
	je	.L75
	jmp	.L77
.L76:
	endbr64
	movq	%rax, %rbx
	leaq	-65(%rbp), %rax
	movq	%rax, %rdi
	call	_ZNSaIcED1Ev@PLT
	movq	%rbx, %rax
	movq	%rax, %rdi
.LEHB4:
	call	_Unwind_Resume@PLT
.LEHE4:
.L77:
	call	__stack_chk_fail@PLT
.L75:
	movq	-8(%rbp), %rbx
	leave
	.cfi_def_cfa 7, 8
	ret
	.cfi_endproc
.LFE3362:
	.section	.gcc_except_table._ZN3bbt6cxxlua6detail6LuaErr5ResetEPKcNS0_7ERRCODEE,"aG",@progbits,_ZN3bbt6cxxlua6detail6LuaErr5ResetEPKcNS0_7ERRCODEE,comdat
.LLSDA3362:
	.byte	0xff
	.byte	0xff
	.byte	0x1
	.uleb128 .LLSDACSE3362-.LLSDACSB3362
.LLSDACSB3362:
	.uleb128 .LEHB3-.LFB3362
	.uleb128 .LEHE3-.LEHB3
	.uleb128 .L76-.LFB3362
	.uleb128 0
	.uleb128 .LEHB4-.LFB3362
	.uleb128 .LEHE4-.LEHB4
	.uleb128 0
	.uleb128 0
.LLSDACSE3362:
	.section	.text._ZN3bbt6cxxlua6detail6LuaErr5ResetEPKcNS0_7ERRCODEE,"axG",@progbits,_ZN3bbt6cxxlua6detail6LuaErr5ResetEPKcNS0_7ERRCODEE,comdat
	.size	_ZN3bbt6cxxlua6detail6LuaErr5ResetEPKcNS0_7ERRCODEE, .-_ZN3bbt6cxxlua6detail6LuaErr5ResetEPKcNS0_7ERRCODEE
	.section	.rodata
.LC1:
	.string	""
	.section	.text._ZN3bbt6cxxlua6detail6LuaErr4WhatB5cxx11Ev,"axG",@progbits,_ZN3bbt6cxxlua6detail6LuaErr4WhatB5cxx11Ev,comdat
	.align 2
	.weak	_ZN3bbt6cxxlua6detail6LuaErr4WhatB5cxx11Ev
	.type	_ZN3bbt6cxxlua6detail6LuaErr4WhatB5cxx11Ev, @function
_ZN3bbt6cxxlua6detail6LuaErr4WhatB5cxx11Ev:
.LFB3367:
	.cfi_startproc
	.cfi_personality 0x9b,DW.ref.__gxx_personality_v0
	.cfi_lsda 0x1b,.LLSDA3367
	endbr64
	pushq	%rbp
	.cfi_def_cfa_offset 16
	.cfi_offset 6, -16
	movq	%rsp, %rbp
	.cfi_def_cfa_register 6
	pushq	%r12
	pushq	%rbx
	subq	$32, %rsp
	.cfi_offset 12, -24
	.cfi_offset 3, -32
	movq	%rdi, -40(%rbp)
	movq	%rsi, -48(%rbp)
	movq	%fs:40, %rax
	movq	%rax, -24(%rbp)
	xorl	%eax, %eax
	movq	-48(%rbp), %rax
	movq	%rax, %rdi
	call	_ZSteqINSt7__cxx1112basic_stringIcSt11char_traitsIcESaIcEEEEbRKSt8optionalIT_ESt9nullopt_t
	movl	$0, %ebx
	testb	%al, %al
	je	.L79
	leaq	-25(%rbp), %rax
	movq	%rax, %rdi
	call	_ZNSaIcEC1Ev@PLT
	movl	$1, %ebx
	leaq	-25(%rbp), %rdx
	movq	-40(%rbp), %rax
	leaq	.LC1(%rip), %rcx
	movq	%rcx, %rsi
	movq	%rax, %rdi
.LEHB5:
	call	_ZNSt7__cxx1112basic_stringIcSt11char_traitsIcESaIcEEC1IS3_EEPKcRKS3_
	jmp	.L80
.L79:
	movq	-48(%rbp), %rax
	movq	%rax, %rdi
	call	_ZNRSt8optionalINSt7__cxx1112basic_stringIcSt11char_traitsIcESaIcEEEE5valueEv
	movq	%rax, %rdx
	movq	-40(%rbp), %rax
	movq	%rdx, %rsi
	movq	%rax, %rdi
	call	_ZNSt7__cxx1112basic_stringIcSt11char_traitsIcESaIcEEC1ERKS4_@PLT
.LEHE5:
.L80:
	testb	%bl, %bl
	je	.L78
	leaq	-25(%rbp), %rax
	movq	%rax, %rdi
	call	_ZNSaIcED1Ev@PLT
	jmp	.L78
.L86:
	endbr64
	movq	%rax, %r12
	testb	%bl, %bl
	je	.L84
	leaq	-25(%rbp), %rax
	movq	%rax, %rdi
	call	_ZNSaIcED1Ev@PLT
.L84:
	movq	%r12, %rax
	movq	%rax, %rdi
.LEHB6:
	call	_Unwind_Resume@PLT
.LEHE6:
.L78:
	movq	-24(%rbp), %rax
	subq	%fs:40, %rax
	je	.L85
	call	__stack_chk_fail@PLT
.L85:
	movq	-40(%rbp), %rax
	addq	$32, %rsp
	popq	%rbx
	popq	%r12
	popq	%rbp
	.cfi_def_cfa 7, 8
	ret
	.cfi_endproc
.LFE3367:
	.section	.gcc_except_table._ZN3bbt6cxxlua6detail6LuaErr4WhatB5cxx11Ev,"aG",@progbits,_ZN3bbt6cxxlua6detail6LuaErr4WhatB5cxx11Ev,comdat
.LLSDA3367:
	.byte	0xff
	.byte	0xff
	.byte	0x1
	.uleb128 .LLSDACSE3367-.LLSDACSB3367
.LLSDACSB3367:
	.uleb128 .LEHB5-.LFB3367
	.uleb128 .LEHE5-.LEHB5
	.uleb128 .L86-.LFB3367
	.uleb128 0
	.uleb128 .LEHB6-.LFB3367
	.uleb128 .LEHE6-.LEHB6
	.uleb128 0
	.uleb128 0
.LLSDACSE3367:
	.section	.text._ZN3bbt6cxxlua6detail6LuaErr4WhatB5cxx11Ev,"axG",@progbits,_ZN3bbt6cxxlua6detail6LuaErr4WhatB5cxx11Ev,comdat
	.size	_ZN3bbt6cxxlua6detail6LuaErr4WhatB5cxx11Ev, .-_ZN3bbt6cxxlua6detail6LuaErr4WhatB5cxx11Ev
	.section	.text._ZN3bbt6cxxlua6detail6LuaRefC2EiNS1_7LUATYPEE,"axG",@progbits,_ZN3bbt6cxxlua6detail6LuaRefC5EiNS1_7LUATYPEE,comdat
	.align 2
	.weak	_ZN3bbt6cxxlua6detail6LuaRefC2EiNS1_7LUATYPEE
	.type	_ZN3bbt6cxxlua6detail6LuaRefC2EiNS1_7LUATYPEE, @function
_ZN3bbt6cxxlua6detail6LuaRefC2EiNS1_7LUATYPEE:
.LFB3370:
	.cfi_startproc
	endbr64
	pushq	%rbp
	.cfi_def_cfa_offset 16
	.cfi_offset 6, -16
	movq	%rsp, %rbp
	.cfi_def_cfa_register 6
	movq	%rdi, -8(%rbp)
	movl	%esi, -12(%rbp)
	movl	%edx, -16(%rbp)
	movq	-8(%rbp), %rax
	movl	-12(%rbp), %edx
	movl	%edx, (%rax)
	movq	-8(%rbp), %rax
	movl	-16(%rbp), %edx
	movl	%edx, 4(%rax)
	nop
	popq	%rbp
	.cfi_def_cfa 7, 8
	ret
	.cfi_endproc
.LFE3370:
	.size	_ZN3bbt6cxxlua6detail6LuaRefC2EiNS1_7LUATYPEE, .-_ZN3bbt6cxxlua6detail6LuaRefC2EiNS1_7LUATYPEE
	.weak	_ZN3bbt6cxxlua6detail6LuaRefC1EiNS1_7LUATYPEE
	.set	_ZN3bbt6cxxlua6detail6LuaRefC1EiNS1_7LUATYPEE,_ZN3bbt6cxxlua6detail6LuaRefC2EiNS1_7LUATYPEE
	.section	.text._ZN3bbt6cxxlua6detail6LuaRefC2ERKS2_,"axG",@progbits,_ZN3bbt6cxxlua6detail6LuaRefC5ERKS2_,comdat
	.align 2
	.weak	_ZN3bbt6cxxlua6detail6LuaRefC2ERKS2_
	.type	_ZN3bbt6cxxlua6detail6LuaRefC2ERKS2_, @function
_ZN3bbt6cxxlua6detail6LuaRefC2ERKS2_:
.LFB3373:
	.cfi_startproc
	endbr64
	pushq	%rbp
	.cfi_def_cfa_offset 16
	.cfi_offset 6, -16
	movq	%rsp, %rbp
	.cfi_def_cfa_register 6
	movq	%rdi, -8(%rbp)
	movq	%rsi, -16(%rbp)
	movq	-16(%rbp), %rax
	movl	(%rax), %edx
	movq	-8(%rbp), %rax
	movl	%edx, (%rax)
	movq	-16(%rbp), %rax
	movl	4(%rax), %edx
	movq	-8(%rbp), %rax
	movl	%edx, 4(%rax)
	nop
	popq	%rbp
	.cfi_def_cfa 7, 8
	ret
	.cfi_endproc
.LFE3373:
	.size	_ZN3bbt6cxxlua6detail6LuaRefC2ERKS2_, .-_ZN3bbt6cxxlua6detail6LuaRefC2ERKS2_
	.weak	_ZN3bbt6cxxlua6detail6LuaRefC1ERKS2_
	.set	_ZN3bbt6cxxlua6detail6LuaRefC1ERKS2_,_ZN3bbt6cxxlua6detail6LuaRefC2ERKS2_
	.section	.text._ZN3bbt6cxxlua6detail6LuaRefD2Ev,"axG",@progbits,_ZN3bbt6cxxlua6detail6LuaRefD5Ev,comdat
	.align 2
	.weak	_ZN3bbt6cxxlua6detail6LuaRefD2Ev
	.type	_ZN3bbt6cxxlua6detail6LuaRefD2Ev, @function
_ZN3bbt6cxxlua6detail6LuaRefD2Ev:
.LFB3376:
	.cfi_startproc
	endbr64
	pushq	%rbp
	.cfi_def_cfa_offset 16
	.cfi_offset 6, -16
	movq	%rsp, %rbp
	.cfi_def_cfa_register 6
	movq	%rdi, -8(%rbp)
	nop
	popq	%rbp
	.cfi_def_cfa 7, 8
	ret
	.cfi_endproc
.LFE3376:
	.size	_ZN3bbt6cxxlua6detail6LuaRefD2Ev, .-_ZN3bbt6cxxlua6detail6LuaRefD2Ev
	.weak	_ZN3bbt6cxxlua6detail6LuaRefD1Ev
	.set	_ZN3bbt6cxxlua6detail6LuaRefD1Ev,_ZN3bbt6cxxlua6detail6LuaRefD2Ev
	.section	.text._ZNK3bbt6cxxlua6detail6LuaRef8GetIndexEv,"axG",@progbits,_ZNK3bbt6cxxlua6detail6LuaRef8GetIndexEv,comdat
	.align 2
	.weak	_ZNK3bbt6cxxlua6detail6LuaRef8GetIndexEv
	.type	_ZNK3bbt6cxxlua6detail6LuaRef8GetIndexEv, @function
_ZNK3bbt6cxxlua6detail6LuaRef8GetIndexEv:
.LFB3379:
	.cfi_startproc
	endbr64
	pushq	%rbp
	.cfi_def_cfa_offset 16
	.cfi_offset 6, -16
	movq	%rsp, %rbp
	.cfi_def_cfa_register 6
	movq	%rdi, -8(%rbp)
	movq	-8(%rbp), %rax
	movl	(%rax), %eax
	popq	%rbp
	.cfi_def_cfa 7, 8
	ret
	.cfi_endproc
.LFE3379:
	.size	_ZNK3bbt6cxxlua6detail6LuaRef8GetIndexEv, .-_ZNK3bbt6cxxlua6detail6LuaRef8GetIndexEv
	.local	_ZN3bbt6cxxlua6detailL13g_lua_top_refE
	.comm	_ZN3bbt6cxxlua6detailL13g_lua_top_refE,8,8
	.section	.text._ZN3bbt6cxxlua6detail8LuaStackC2EP9lua_State,"axG",@progbits,_ZN3bbt6cxxlua6detail8LuaStackC5EP9lua_State,comdat
	.align 2
	.weak	_ZN3bbt6cxxlua6detail8LuaStackC2EP9lua_State
	.type	_ZN3bbt6cxxlua6detail8LuaStackC2EP9lua_State, @function
_ZN3bbt6cxxlua6detail8LuaStackC2EP9lua_State:
.LFB3382:
	.cfi_startproc
	endbr64
	pushq	%rbp
	.cfi_def_cfa_offset 16
	.cfi_offset 6, -16
	movq	%rsp, %rbp
	.cfi_def_cfa_register 6
	movq	%rdi, -8(%rbp)
	movq	%rsi, -16(%rbp)
	movq	-8(%rbp), %rax
	movq	-16(%rbp), %rdx
	movq	%rdx, (%rax)
	nop
	popq	%rbp
	.cfi_def_cfa 7, 8
	ret
	.cfi_endproc
.LFE3382:
	.size	_ZN3bbt6cxxlua6detail8LuaStackC2EP9lua_State, .-_ZN3bbt6cxxlua6detail8LuaStackC2EP9lua_State
	.weak	_ZN3bbt6cxxlua6detail8LuaStackC1EP9lua_State
	.set	_ZN3bbt6cxxlua6detail8LuaStackC1EP9lua_State,_ZN3bbt6cxxlua6detail8LuaStackC2EP9lua_State
	.section	.text._ZN3bbt6cxxlua6detail8LuaStackD2Ev,"axG",@progbits,_ZN3bbt6cxxlua6detail8LuaStackD5Ev,comdat
	.align 2
	.weak	_ZN3bbt6cxxlua6detail8LuaStackD2Ev
	.type	_ZN3bbt6cxxlua6detail8LuaStackD2Ev, @function
_ZN3bbt6cxxlua6detail8LuaStackD2Ev:
.LFB3385:
	.cfi_startproc
	endbr64
	pushq	%rbp
	.cfi_def_cfa_offset 16
	.cfi_offset 6, -16
	movq	%rsp, %rbp
	.cfi_def_cfa_register 6
	movq	%rdi, -8(%rbp)
	nop
	popq	%rbp
	.cfi_def_cfa 7, 8
	ret
	.cfi_endproc
.LFE3385:
	.size	_ZN3bbt6cxxlua6detail8LuaStackD2Ev, .-_ZN3bbt6cxxlua6detail8LuaStackD2Ev
	.weak	_ZN3bbt6cxxlua6detail8LuaStackD1Ev
	.set	_ZN3bbt6cxxlua6detail8LuaStackD1Ev,_ZN3bbt6cxxlua6detail8LuaStackD2Ev
	.section	.text._ZN3bbt6cxxlua6detail8LuaStack11IsSafeValueERKNS1_6LuaRefE,"axG",@progbits,_ZN3bbt6cxxlua6detail8LuaStack11IsSafeValueERKNS1_6LuaRefE,comdat
	.align 2
	.weak	_ZN3bbt6cxxlua6detail8LuaStack11IsSafeValueERKNS1_6LuaRefE
	.type	_ZN3bbt6cxxlua6detail8LuaStack11IsSafeValueERKNS1_6LuaRefE, @function
_ZN3bbt6cxxlua6detail8LuaStack11IsSafeValueERKNS1_6LuaRefE:
.LFB3387:
	.cfi_startproc
	endbr64
	pushq	%rbp
	.cfi_def_cfa_offset 16
	.cfi_offset 6, -16
	movq	%rsp, %rbp
	.cfi_def_cfa_register 6
	subq	$16, %rsp
	movq	%rdi, -8(%rbp)
	movq	%rsi, -16(%rbp)
	movq	-16(%rbp), %rdx
	movq	-8(%rbp), %rax
	movq	%rdx, %rsi
	movq	%rax, %rdi
	call	_ZN3bbt6cxxlua6detail8LuaStack9IsSafeRefERKNS1_6LuaRefE
	leave
	.cfi_def_cfa 7, 8
	ret
	.cfi_endproc
.LFE3387:
	.size	_ZN3bbt6cxxlua6detail8LuaStack11IsSafeValueERKNS1_6LuaRefE, .-_ZN3bbt6cxxlua6detail8LuaStack11IsSafeValueERKNS1_6LuaRefE
	.section	.text._ZN3bbt6cxxlua6detail8LuaStack11IsSafeValueEPFiP9lua_StateE,"axG",@progbits,_ZN3bbt6cxxlua6detail8LuaStack11IsSafeValueEPFiP9lua_StateE,comdat
	.align 2
	.weak	_ZN3bbt6cxxlua6detail8LuaStack11IsSafeValueEPFiP9lua_StateE
	.type	_ZN3bbt6cxxlua6detail8LuaStack11IsSafeValueEPFiP9lua_StateE, @function
_ZN3bbt6cxxlua6detail8LuaStack11IsSafeValueEPFiP9lua_StateE:
.LFB3391:
	.cfi_startproc
	endbr64
	pushq	%rbp
	.cfi_def_cfa_offset 16
	.cfi_offset 6, -16
	movq	%rsp, %rbp
	.cfi_def_cfa_register 6
	movq	%rdi, -8(%rbp)
	movq	%rsi, -16(%rbp)
	cmpq	$0, -16(%rbp)
	setne	%al
	popq	%rbp
	.cfi_def_cfa 7, 8
	ret
	.cfi_endproc
.LFE3391:
	.size	_ZN3bbt6cxxlua6detail8LuaStack11IsSafeValueEPFiP9lua_StateE, .-_ZN3bbt6cxxlua6detail8LuaStack11IsSafeValueEPFiP9lua_StateE
	.section	.text._ZN3bbt6cxxlua6detail8LuaStack7ContextEv,"axG",@progbits,_ZN3bbt6cxxlua6detail8LuaStack7ContextEv,comdat
	.align 2
	.weak	_ZN3bbt6cxxlua6detail8LuaStack7ContextEv
	.type	_ZN3bbt6cxxlua6detail8LuaStack7ContextEv, @function
_ZN3bbt6cxxlua6detail8LuaStack7ContextEv:
.LFB3392:
	.cfi_startproc
	endbr64
	pushq	%rbp
	.cfi_def_cfa_offset 16
	.cfi_offset 6, -16
	movq	%rsp, %rbp
	.cfi_def_cfa_register 6
	movq	%rdi, -8(%rbp)
	movq	-8(%rbp), %rax
	movq	(%rax), %rax
	popq	%rbp
	.cfi_def_cfa 7, 8
	ret
	.cfi_endproc
.LFE3392:
	.size	_ZN3bbt6cxxlua6detail8LuaStack7ContextEv, .-_ZN3bbt6cxxlua6detail8LuaStack7ContextEv
	.section	.rodata
	.align 8
.LC2:
	.string	"-----------> top <-----------\n"
.LC3:
	.string	"\347\264\242\345\274\225\t\347\261\273\345\236\213\t\345\200\274\n"
.LC4:
	.string	"(%d)\t%s\t%s\n"
	.align 8
.LC5:
	.string	"-----------> bottom <-----------\n"
	.text
	.globl	_ZN3bbt6cxxlua6detail11DbgLuaStackEP9lua_State
	.type	_ZN3bbt6cxxlua6detail11DbgLuaStackEP9lua_State, @function
_ZN3bbt6cxxlua6detail11DbgLuaStackEP9lua_State:
.LFB3397:
	.cfi_startproc
	endbr64
	pushq	%rbp
	.cfi_def_cfa_offset 16
	.cfi_offset 6, -16
	movq	%rsp, %rbp
	.cfi_def_cfa_register 6
	pushq	%rbx
	subq	$40, %rsp
	.cfi_offset 3, -24
	movq	%rdi, -40(%rbp)
	movq	stderr(%rip), %rax
	movq	%rax, %rcx
	movl	$30, %edx
	movl	$1, %esi
	leaq	.LC2(%rip), %rax
	movq	%rax, %rdi
	call	fwrite@PLT
	movq	stderr(%rip), %rax
	movq	%rax, %rcx
	movl	$18, %edx
	movl	$1, %esi
	leaq	.LC3(%rip), %rax
	movq	%rax, %rdi
	call	fwrite@PLT
	movq	-40(%rbp), %rax
	movq	%rax, %rdi
	call	lua_gettop@PLT
	movl	%eax, -24(%rbp)
	jmp	.L101
.L102:
	movl	-24(%rbp), %edx
	movq	-40(%rbp), %rax
	movl	%edx, %esi
	movq	%rax, %rdi
	call	lua_type@PLT
	movl	%eax, -20(%rbp)
	movl	-24(%rbp), %ecx
	movq	-40(%rbp), %rax
	movl	$0, %edx
	movl	%ecx, %esi
	movq	%rax, %rdi
	call	lua_tolstring@PLT
	movq	%rax, %rbx
	movl	-20(%rbp), %edx
	movq	-40(%rbp), %rax
	movl	%edx, %esi
	movq	%rax, %rdi
	call	lua_typename@PLT
	movq	%rax, %rcx
	movq	stderr(%rip), %rax
	movl	-24(%rbp), %edx
	movq	%rbx, %r8
	leaq	.LC4(%rip), %rsi
	movq	%rax, %rdi
	movl	$0, %eax
	call	fprintf@PLT
	subl	$1, -24(%rbp)
.L101:
	cmpl	$0, -24(%rbp)
	jg	.L102
	movq	stderr(%rip), %rax
	movq	%rax, %rcx
	movl	$33, %edx
	movl	$1, %esi
	leaq	.LC5(%rip), %rax
	movq	%rax, %rdi
	call	fwrite@PLT
	nop
	movq	-8(%rbp), %rbx
	leave
	.cfi_def_cfa 7, 8
	ret
	.cfi_endproc
.LFE3397:
	.size	_ZN3bbt6cxxlua6detail11DbgLuaStackEP9lua_State, .-_ZN3bbt6cxxlua6detail11DbgLuaStackEP9lua_State
	.align 2
	.globl	_ZN3bbt6cxxlua6detail8LuaStack17__ParseLuaLoadErrEi
	.type	_ZN3bbt6cxxlua6detail8LuaStack17__ParseLuaLoadErrEi, @function
_ZN3bbt6cxxlua6detail8LuaStack17__ParseLuaLoadErrEi:
.LFB4861:
	.cfi_startproc
	.cfi_personality 0x9b,DW.ref.__gxx_personality_v0
	.cfi_lsda 0x1b,.LLSDA4861
	endbr64
	pushq	%rbp
	.cfi_def_cfa_offset 16
	.cfi_offset 6, -16
	movq	%rsp, %rbp
	.cfi_def_cfa_register 6
	pushq	%rbx
	subq	$40, %rsp
	.cfi_offset 3, -24
	movq	%rdi, -24(%rbp)
	movq	%rsi, -32(%rbp)
	movl	%edx, -36(%rbp)
	movq	-24(%rbp), %rax
	movq	%rax, %rdi
	call	_ZN3bbt6cxxlua6detail6LuaErrC1Ev
	cmpl	$3, -36(%rbp)
	je	.L104
	cmpl	$4, -36(%rbp)
	je	.L105
	jmp	.L111
.L104:
	movq	-32(%rbp), %rax
	movq	%rax, %rdi
	call	_ZN3bbt6cxxlua6detail8LuaStack7ContextEv
	movl	$0, %edx
	movl	$-1, %esi
	movq	%rax, %rdi
.LEHB7:
	call	lua_tolstring@PLT
	movq	%rax, %rcx
	movq	-24(%rbp), %rax
	movl	$4, %edx
	movq	%rcx, %rsi
	movq	%rax, %rdi
	call	_ZN3bbt6cxxlua6detail6LuaErr5ResetEPKcNS0_7ERRCODEE
	jmp	.L107
.L105:
	movq	-24(%rbp), %rax
	movl	$5, %edx
	leaq	.LC1(%rip), %rcx
	movq	%rcx, %rsi
	movq	%rax, %rdi
	call	_ZN3bbt6cxxlua6detail6LuaErr5ResetEPKcNS0_7ERRCODEE
	jmp	.L107
.L111:
	movq	-24(%rbp), %rax
	movl	$0, %edx
	leaq	.LC1(%rip), %rcx
	movq	%rcx, %rsi
	movq	%rax, %rdi
	call	_ZN3bbt6cxxlua6detail6LuaErr5ResetEPKcNS0_7ERRCODEE
.LEHE7:
	nop
.L107:
	jmp	.L112
.L110:
	endbr64
	movq	%rax, %rbx
	movq	-24(%rbp), %rax
	movq	%rax, %rdi
	call	_ZN3bbt6cxxlua6detail6LuaErrD1Ev
	movq	%rbx, %rax
	movq	%rax, %rdi
.LEHB8:
	call	_Unwind_Resume@PLT
.LEHE8:
.L112:
	movq	-24(%rbp), %rax
	movq	-8(%rbp), %rbx
	leave
	.cfi_def_cfa 7, 8
	ret
	.cfi_endproc
.LFE4861:
	.section	.gcc_except_table,"a",@progbits
.LLSDA4861:
	.byte	0xff
	.byte	0xff
	.byte	0x1
	.uleb128 .LLSDACSE4861-.LLSDACSB4861
.LLSDACSB4861:
	.uleb128 .LEHB7-.LFB4861
	.uleb128 .LEHE7-.LEHB7
	.uleb128 .L110-.LFB4861
	.uleb128 0
	.uleb128 .LEHB8-.LFB4861
	.uleb128 .LEHE8-.LEHB8
	.uleb128 0
	.uleb128 0
.LLSDACSE4861:
	.text
	.size	_ZN3bbt6cxxlua6detail8LuaStack17__ParseLuaLoadErrEi, .-_ZN3bbt6cxxlua6detail8LuaStack17__ParseLuaLoadErrEi
	.section	.text._ZNSt14_Optional_baseIN3bbt6cxxlua6detail6LuaErrELb0ELb0EED2Ev,"axG",@progbits,_ZNSt14_Optional_baseIN3bbt6cxxlua6detail6LuaErrELb0ELb0EED5Ev,comdat
	.align 2
	.weak	_ZNSt14_Optional_baseIN3bbt6cxxlua6detail6LuaErrELb0ELb0EED2Ev
	.type	_ZNSt14_Optional_baseIN3bbt6cxxlua6detail6LuaErrELb0ELb0EED2Ev, @function
_ZNSt14_Optional_baseIN3bbt6cxxlua6detail6LuaErrELb0ELb0EED2Ev:
.LFB4866:
	.cfi_startproc
	endbr64
	pushq	%rbp
	.cfi_def_cfa_offset 16
	.cfi_offset 6, -16
	movq	%rsp, %rbp
	.cfi_def_cfa_register 6
	subq	$16, %rsp
	movq	%rdi, -8(%rbp)
	movq	-8(%rbp), %rax
	movq	%rax, %rdi
	call	_ZNSt17_Optional_payloadIN3bbt6cxxlua6detail6LuaErrELb0ELb0ELb0EED1Ev
	nop
	leave
	.cfi_def_cfa 7, 8
	ret
	.cfi_endproc
.LFE4866:
	.size	_ZNSt14_Optional_baseIN3bbt6cxxlua6detail6LuaErrELb0ELb0EED2Ev, .-_ZNSt14_Optional_baseIN3bbt6cxxlua6detail6LuaErrELb0ELb0EED2Ev
	.weak	_ZNSt14_Optional_baseIN3bbt6cxxlua6detail6LuaErrELb0ELb0EED1Ev
	.set	_ZNSt14_Optional_baseIN3bbt6cxxlua6detail6LuaErrELb0ELb0EED1Ev,_ZNSt14_Optional_baseIN3bbt6cxxlua6detail6LuaErrELb0ELb0EED2Ev
	.section	.text._ZNSt8optionalIN3bbt6cxxlua6detail6LuaErrEED2Ev,"axG",@progbits,_ZNSt8optionalIN3bbt6cxxlua6detail6LuaErrEED5Ev,comdat
	.align 2
	.weak	_ZNSt8optionalIN3bbt6cxxlua6detail6LuaErrEED2Ev
	.type	_ZNSt8optionalIN3bbt6cxxlua6detail6LuaErrEED2Ev, @function
_ZNSt8optionalIN3bbt6cxxlua6detail6LuaErrEED2Ev:
.LFB4868:
	.cfi_startproc
	endbr64
	pushq	%rbp
	.cfi_def_cfa_offset 16
	.cfi_offset 6, -16
	movq	%rsp, %rbp
	.cfi_def_cfa_register 6
	subq	$16, %rsp
	movq	%rdi, -8(%rbp)
	movq	-8(%rbp), %rax
	movq	%rax, %rdi
	call	_ZNSt14_Optional_baseIN3bbt6cxxlua6detail6LuaErrELb0ELb0EED2Ev
	nop
	leave
	.cfi_def_cfa 7, 8
	ret
	.cfi_endproc
.LFE4868:
	.size	_ZNSt8optionalIN3bbt6cxxlua6detail6LuaErrEED2Ev, .-_ZNSt8optionalIN3bbt6cxxlua6detail6LuaErrEED2Ev
	.weak	_ZNSt8optionalIN3bbt6cxxlua6detail6LuaErrEED1Ev
	.set	_ZNSt8optionalIN3bbt6cxxlua6detail6LuaErrEED1Ev,_ZNSt8optionalIN3bbt6cxxlua6detail6LuaErrEED2Ev
	.text
	.align 2
	.globl	_ZN3bbt6cxxlua6detail8LuaStack8DoScriptERKNSt7__cxx1112basic_stringIcSt11char_traitsIcESaIcEEE
	.type	_ZN3bbt6cxxlua6detail8LuaStack8DoScriptERKNSt7__cxx1112basic_stringIcSt11char_traitsIcESaIcEEE, @function
_ZN3bbt6cxxlua6detail8LuaStack8DoScriptERKNSt7__cxx1112basic_stringIcSt11char_traitsIcESaIcEEE:
.LFB4863:
	.cfi_startproc
	.cfi_personality 0x9b,DW.ref.__gxx_personality_v0
	.cfi_lsda 0x1b,.LLSDA4863
	endbr64
	pushq	%rbp
	.cfi_def_cfa_offset 16
	.cfi_offset 6, -16
	movq	%rsp, %rbp
	.cfi_def_cfa_register 6
	pushq	%rbx
	subq	$104, %rsp
	.cfi_offset 3, -24
	movq	%rdi, -88(%rbp)
	movq	%rsi, -96(%rbp)
	movq	%rdx, -104(%rbp)
	movq	%fs:40, %rax
	movq	%rax, -24(%rbp)
	xorl	%eax, %eax
	movq	-104(%rbp), %rax
	movq	%rax, %rdi
	call	_ZNKSt7__cxx1112basic_stringIcSt11char_traitsIcESaIcEE5c_strEv@PLT
	movq	%rax, %rbx
	movq	-96(%rbp), %rax
	movq	%rax, %rdi
	call	_ZN3bbt6cxxlua6detail8LuaStack7ContextEv
	movq	%rbx, %rsi
	movq	%rax, %rdi
.LEHB9:
	call	luaL_loadstring@PLT
	testl	%eax, %eax
	jne	.L116
	movq	-96(%rbp), %rax
	movq	%rax, %rdi
	call	_ZN3bbt6cxxlua6detail8LuaStack7ContextEv
	movl	$0, %r9d
	movl	$0, %r8d
	movl	$0, %ecx
	movl	$-1, %edx
	movl	$0, %esi
	movq	%rax, %rdi
	call	lua_pcallk@PLT
	testl	%eax, %eax
	je	.L117
.L116:
	movl	$1, %eax
	jmp	.L118
.L117:
	movl	$0, %eax
.L118:
	movzbl	%al, %eax
	testl	%eax, %eax
	setne	%al
	testb	%al, %al
	je	.L119
	movq	-96(%rbp), %rax
	movq	%rax, %rdi
	call	_ZN3bbt6cxxlua6detail8LuaStack7ContextEv
	movl	$0, %edx
	movl	$-1, %esi
	movq	%rax, %rdi
	call	lua_tolstring@PLT
	movq	%rax, %rcx
	leaq	-80(%rbp), %rax
	movl	$6, %edx
	movq	%rcx, %rsi
	movq	%rax, %rdi
	call	_ZN3bbt6cxxlua6detail6LuaErrC1EPKcNS0_7ERRCODEE
.LEHE9:
	leaq	-80(%rbp), %rdx
	movq	-88(%rbp), %rax
	movq	%rdx, %rsi
	movq	%rax, %rdi
.LEHB10:
	call	_ZNSt8optionalIN3bbt6cxxlua6detail6LuaErrEEC1IS3_Lb1EEEOT_
.LEHE10:
	nop
	leaq	-80(%rbp), %rax
	movq	%rax, %rdi
	call	_ZN3bbt6cxxlua6detail6LuaErrD1Ev
	jmp	.L115
.L119:
	movq	-88(%rbp), %rax
	movq	%rax, %rdi
	call	_ZNSt8optionalIN3bbt6cxxlua6detail6LuaErrEEC1ESt9nullopt_t
	jmp	.L115
.L123:
	endbr64
	movq	%rax, %rbx
	leaq	-80(%rbp), %rax
	movq	%rax, %rdi
	call	_ZN3bbt6cxxlua6detail6LuaErrD1Ev
	movq	%rbx, %rax
	movq	%rax, %rdi
.LEHB11:
	call	_Unwind_Resume@PLT
.LEHE11:
.L115:
	movq	-24(%rbp), %rax
	subq	%fs:40, %rax
	je	.L122
	call	__stack_chk_fail@PLT
.L122:
	movq	-88(%rbp), %rax
	movq	-8(%rbp), %rbx
	leave
	.cfi_def_cfa 7, 8
	ret
	.cfi_endproc
.LFE4863:
	.section	.gcc_except_table
.LLSDA4863:
	.byte	0xff
	.byte	0xff
	.byte	0x1
	.uleb128 .LLSDACSE4863-.LLSDACSB4863
.LLSDACSB4863:
	.uleb128 .LEHB9-.LFB4863
	.uleb128 .LEHE9-.LEHB9
	.uleb128 0
	.uleb128 0
	.uleb128 .LEHB10-.LFB4863
	.uleb128 .LEHE10-.LEHB10
	.uleb128 .L123-.LFB4863
	.uleb128 0
	.uleb128 .LEHB11-.LFB4863
	.uleb128 .LEHE11-.LEHB11
	.uleb128 0
	.uleb128 0
.LLSDACSE4863:
	.text
	.size	_ZN3bbt6cxxlua6detail8LuaStack8DoScriptERKNSt7__cxx1112basic_stringIcSt11char_traitsIcESaIcEEE, .-_ZN3bbt6cxxlua6detail8LuaStack8DoScriptERKNSt7__cxx1112basic_stringIcSt11char_traitsIcESaIcEEE
	.align 2
	.globl	_ZN3bbt6cxxlua6detail8LuaStack8LoadFileERKNSt7__cxx1112basic_stringIcSt11char_traitsIcESaIcEEE
	.type	_ZN3bbt6cxxlua6detail8LuaStack8LoadFileERKNSt7__cxx1112basic_stringIcSt11char_traitsIcESaIcEEE, @function
_ZN3bbt6cxxlua6detail8LuaStack8LoadFileERKNSt7__cxx1112basic_stringIcSt11char_traitsIcESaIcEEE:
.LFB4870:
	.cfi_startproc
	.cfi_personality 0x9b,DW.ref.__gxx_personality_v0
	.cfi_lsda 0x1b,.LLSDA4870
	endbr64
	pushq	%rbp
	.cfi_def_cfa_offset 16
	.cfi_offset 6, -16
	movq	%rsp, %rbp
	.cfi_def_cfa_register 6
	pushq	%rbx
	subq	$120, %rsp
	.cfi_offset 3, -24
	movq	%rdi, -104(%rbp)
	movq	%rsi, -112(%rbp)
	movq	%rdx, -120(%rbp)
	movq	%fs:40, %rax
	movq	%rax, -24(%rbp)
	xorl	%eax, %eax
	movq	-120(%rbp), %rax
	movq	%rax, %rdi
	call	_ZNKSt7__cxx1112basic_stringIcSt11char_traitsIcESaIcEE5c_strEv@PLT
	movq	%rax, %rbx
	movq	-112(%rbp), %rax
	movq	%rax, %rdi
	call	_ZN3bbt6cxxlua6detail8LuaStack7ContextEv
	movl	$0, %edx
	movq	%rbx, %rsi
	movq	%rax, %rdi
.LEHB12:
	call	luaL_loadfilex@PLT
	movl	%eax, -84(%rbp)
	cmpl	$0, -84(%rbp)
	je	.L125
	leaq	-80(%rbp), %rax
	movl	-84(%rbp), %edx
	movq	-112(%rbp), %rcx
	movq	%rcx, %rsi
	movq	%rax, %rdi
	call	_ZN3bbt6cxxlua6detail8LuaStack17__ParseLuaLoadErrEi
.LEHE12:
	leaq	-80(%rbp), %rdx
	movq	-104(%rbp), %rax
	movq	%rdx, %rsi
	movq	%rax, %rdi
.LEHB13:
	call	_ZNSt8optionalIN3bbt6cxxlua6detail6LuaErrEEC1IS3_Lb1EEEOT_
.LEHE13:
	nop
	leaq	-80(%rbp), %rax
	movq	%rax, %rdi
	call	_ZN3bbt6cxxlua6detail6LuaErrD1Ev
	jmp	.L124
.L125:
	movq	-112(%rbp), %rax
	movq	%rax, %rdi
	call	_ZN3bbt6cxxlua6detail8LuaStack7ContextEv
	movl	$0, %r9d
	movl	$0, %r8d
	movl	$0, %ecx
	movl	$0, %edx
	movl	$0, %esi
	movq	%rax, %rdi
.LEHB14:
	call	lua_pcallk@PLT
	movq	-104(%rbp), %rax
	movq	%rax, %rdi
	call	_ZNSt8optionalIN3bbt6cxxlua6detail6LuaErrEEC1ESt9nullopt_t
	jmp	.L124
.L129:
	endbr64
	movq	%rax, %rbx
	leaq	-80(%rbp), %rax
	movq	%rax, %rdi
	call	_ZN3bbt6cxxlua6detail6LuaErrD1Ev
	movq	%rbx, %rax
	movq	%rax, %rdi
	call	_Unwind_Resume@PLT
.LEHE14:
.L124:
	movq	-24(%rbp), %rax
	subq	%fs:40, %rax
	je	.L128
	call	__stack_chk_fail@PLT
.L128:
	movq	-104(%rbp), %rax
	movq	-8(%rbp), %rbx
	leave
	.cfi_def_cfa 7, 8
	ret
	.cfi_endproc
.LFE4870:
	.section	.gcc_except_table
.LLSDA4870:
	.byte	0xff
	.byte	0xff
	.byte	0x1
	.uleb128 .LLSDACSE4870-.LLSDACSB4870
.LLSDACSB4870:
	.uleb128 .LEHB12-.LFB4870
	.uleb128 .LEHE12-.LEHB12
	.uleb128 0
	.uleb128 0
	.uleb128 .LEHB13-.LFB4870
	.uleb128 .LEHE13-.LEHB13
	.uleb128 .L129-.LFB4870
	.uleb128 0
	.uleb128 .LEHB14-.LFB4870
	.uleb128 .LEHE14-.LEHB14
	.uleb128 0
	.uleb128 0
.LLSDACSE4870:
	.text
	.size	_ZN3bbt6cxxlua6detail8LuaStack8LoadFileERKNSt7__cxx1112basic_stringIcSt11char_traitsIcESaIcEEE, .-_ZN3bbt6cxxlua6detail8LuaStack8LoadFileERKNSt7__cxx1112basic_stringIcSt11char_traitsIcESaIcEEE
	.section	.text._ZNSt8optionalIN3bbt6cxxlua6detail6LuaErrEEC2EOS4_,"axG",@progbits,_ZNSt8optionalIN3bbt6cxxlua6detail6LuaErrEEC5EOS4_,comdat
	.align 2
	.weak	_ZNSt8optionalIN3bbt6cxxlua6detail6LuaErrEEC2EOS4_
	.type	_ZNSt8optionalIN3bbt6cxxlua6detail6LuaErrEEC2EOS4_, @function
_ZNSt8optionalIN3bbt6cxxlua6detail6LuaErrEEC2EOS4_:
.LFB4873:
	.cfi_startproc
	endbr64
	pushq	%rbp
	.cfi_def_cfa_offset 16
	.cfi_offset 6, -16
	movq	%rsp, %rbp
	.cfi_def_cfa_register 6
	subq	$16, %rsp
	movq	%rdi, -8(%rbp)
	movq	%rsi, -16(%rbp)
	movq	-8(%rbp), %rax
	movq	-16(%rbp), %rdx
	movq	%rdx, %rsi
	movq	%rax, %rdi
	call	_ZNSt14_Optional_baseIN3bbt6cxxlua6detail6LuaErrELb0ELb0EEC2EOS4_
	nop
	leave
	.cfi_def_cfa 7, 8
	ret
	.cfi_endproc
.LFE4873:
	.size	_ZNSt8optionalIN3bbt6cxxlua6detail6LuaErrEEC2EOS4_, .-_ZNSt8optionalIN3bbt6cxxlua6detail6LuaErrEEC2EOS4_
	.weak	_ZNSt8optionalIN3bbt6cxxlua6detail6LuaErrEEC1EOS4_
	.set	_ZNSt8optionalIN3bbt6cxxlua6detail6LuaErrEEC1EOS4_,_ZNSt8optionalIN3bbt6cxxlua6detail6LuaErrEEC2EOS4_
	.section	.rodata
.LC6:
	.string	"lua"
	.text
	.align 2
	.globl	_ZN3bbt6cxxlua6detail8LuaStack10LoadFolderERKNSt7__cxx1112basic_stringIcSt11char_traitsIcESaIcEEE
	.type	_ZN3bbt6cxxlua6detail8LuaStack10LoadFolderERKNSt7__cxx1112basic_stringIcSt11char_traitsIcESaIcEEE, @function
_ZN3bbt6cxxlua6detail8LuaStack10LoadFolderERKNSt7__cxx1112basic_stringIcSt11char_traitsIcESaIcEEE:
.LFB4871:
	.cfi_startproc
	.cfi_personality 0x9b,DW.ref.__gxx_personality_v0
	.cfi_lsda 0x1b,.LLSDA4871
	endbr64
	pushq	%rbp
	.cfi_def_cfa_offset 16
	.cfi_offset 6, -16
	movq	%rsp, %rbp
	.cfi_def_cfa_register 6
	pushq	%r13
	pushq	%r12
	pushq	%rbx
	subq	$200, %rsp
	.cfi_offset 13, -24
	.cfi_offset 12, -32
	.cfi_offset 3, -40
	movq	%rdi, -200(%rbp)
	movq	%rsi, -208(%rbp)
	movq	%rdx, -216(%rbp)
	movq	%fs:40, %rax
	movq	%rax, -40(%rbp)
	xorl	%eax, %eax
	movq	-216(%rbp), %rax
	movq	%rax, %rdi
	call	_ZNKSt7__cxx1112basic_stringIcSt11char_traitsIcESaIcEE5emptyEv@PLT
	testb	%al, %al
	jne	.L132
	movq	-216(%rbp), %rax
	movq	%rax, %rdi
.LEHB15:
	call	_ZN3bbt4file5ExistERKNSt7__cxx1112basic_stringIcSt11char_traitsIcESaIcEEE@PLT
	xorl	$1, %eax
	testb	%al, %al
	je	.L133
.L132:
	movl	$1, %eax
	jmp	.L134
.L133:
	movl	$0, %eax
.L134:
	testb	%al, %al
	je	.L135
	leaq	-96(%rbp), %rax
	movl	$3, %edx
	leaq	.LC1(%rip), %rcx
	movq	%rcx, %rsi
	movq	%rax, %rdi
	call	_ZN3bbt6cxxlua6detail6LuaErrC1EPKcNS0_7ERRCODEE
.LEHE15:
	leaq	-96(%rbp), %rdx
	movq	-200(%rbp), %rax
	movq	%rdx, %rsi
	movq	%rax, %rdi
.LEHB16:
	call	_ZNSt8optionalIN3bbt6cxxlua6detail6LuaErrEEC1IS3_Lb1EEEOT_
.LEHE16:
	nop
	leaq	-96(%rbp), %rax
	movq	%rax, %rdi
	call	_ZN3bbt6cxxlua6detail6LuaErrD1Ev
	jmp	.L131
.L135:
	leaq	-185(%rbp), %rax
	movq	%rax, %rdi
	call	_ZNSaIcEC1Ev@PLT
	leaq	-185(%rbp), %rdx
	leaq	-96(%rbp), %rax
	leaq	.LC6(%rip), %rcx
	movq	%rcx, %rsi
	movq	%rax, %rdi
.LEHB17:
	call	_ZNSt7__cxx1112basic_stringIcSt11char_traitsIcESaIcEEC1IS3_EEPKcRKS3_
.LEHE17:
	leaq	-96(%rbp), %rax
	movq	%rax, %r12
	movl	$1, %r13d
	leaq	-184(%rbp), %rax
	movq	%rax, %rdi
	call	_ZNSaINSt7__cxx1112basic_stringIcSt11char_traitsIcESaIcEEEEC1Ev
	leaq	-184(%rbp), %rdx
	movq	%r12, %rsi
	movq	%r13, %rdi
	movq	%r12, %rcx
	movq	%r13, %rbx
	movq	%rbx, %rdi
	leaq	-128(%rbp), %rax
	movq	%rdx, %rcx
	movq	%rdi, %rdx
	movq	%rax, %rdi
.LEHB18:
	call	_ZNSt6vectorINSt7__cxx1112basic_stringIcSt11char_traitsIcESaIcEEESaIS5_EEC1ESt16initializer_listIS5_ERKS6_
.LEHE18:
	leaq	-160(%rbp), %rax
	leaq	-128(%rbp), %rdx
	movq	-216(%rbp), %rsi
	movq	%rdx, %rcx
	movl	$0, %edx
	movq	%rax, %rdi
.LEHB19:
	call	_ZN3bbt4file15GetFileByFolderERKNSt7__cxx1112basic_stringIcSt11char_traitsIcESaIcEEEbSt6vectorIS6_SaIS6_EE@PLT
.LEHE19:
	leaq	-128(%rbp), %rax
	movq	%rax, %rdi
	call	_ZNSt6vectorINSt7__cxx1112basic_stringIcSt11char_traitsIcESaIcEEESaIS5_EED1Ev
	leaq	-184(%rbp), %rax
	movq	%rax, %rdi
	call	_ZNSaINSt7__cxx1112basic_stringIcSt11char_traitsIcESaIcEEEED1Ev
	leaq	-96(%rbp), %rbx
	addq	$32, %rbx
.L138:
	leaq	-96(%rbp), %rax
	cmpq	%rax, %rbx
	je	.L137
	subq	$32, %rbx
	movq	%rbx, %rdi
	call	_ZNSt7__cxx1112basic_stringIcSt11char_traitsIcESaIcEED1Ev@PLT
	jmp	.L138
.L137:
	leaq	-185(%rbp), %rax
	movq	%rax, %rdi
	call	_ZNSaIcED1Ev@PLT
	leaq	-160(%rbp), %rax
	movq	%rax, -176(%rbp)
	movq	-176(%rbp), %rax
	movq	%rax, %rdi
	call	_ZNSt6vectorINSt7__cxx1112basic_stringIcSt11char_traitsIcESaIcEEESaIS5_EE5beginEv
	movq	%rax, -184(%rbp)
	movq	-176(%rbp), %rax
	movq	%rax, %rdi
	call	_ZNSt6vectorINSt7__cxx1112basic_stringIcSt11char_traitsIcESaIcEEESaIS5_EE3endEv
	movq	%rax, -128(%rbp)
	jmp	.L139
.L144:
	leaq	-184(%rbp), %rax
	movq	%rax, %rdi
	call	_ZNK9__gnu_cxx17__normal_iteratorIPNSt7__cxx1112basic_stringIcSt11char_traitsIcESaIcEEESt6vectorIS6_SaIS6_EEEdeEv
	movq	%rax, -168(%rbp)
	leaq	-96(%rbp), %rax
	movq	-168(%rbp), %rdx
	movq	-208(%rbp), %rcx
	movq	%rcx, %rsi
	movq	%rax, %rdi
.LEHB20:
	call	_ZN3bbt6cxxlua6detail8LuaStack8LoadFileERKNSt7__cxx1112basic_stringIcSt11char_traitsIcESaIcEEE
.LEHE20:
	leaq	-96(%rbp), %rax
	movq	%rax, %rdi
	call	_ZStneIN3bbt6cxxlua6detail6LuaErrEEbRKSt8optionalIT_ESt9nullopt_t
	testb	%al, %al
	je	.L140
	leaq	-96(%rbp), %rdx
	movq	-200(%rbp), %rax
	movq	%rdx, %rsi
	movq	%rax, %rdi
.LEHB21:
	call	_ZNSt8optionalIN3bbt6cxxlua6detail6LuaErrEEC1EOS4_
.LEHE21:
	movl	$0, %ebx
	jmp	.L141
.L140:
	movl	$1, %ebx
.L141:
	leaq	-96(%rbp), %rax
	movq	%rax, %rdi
	call	_ZNSt8optionalIN3bbt6cxxlua6detail6LuaErrEED1Ev
	cmpl	$1, %ebx
	jne	.L143
	leaq	-184(%rbp), %rax
	movq	%rax, %rdi
	call	_ZN9__gnu_cxx17__normal_iteratorIPNSt7__cxx1112basic_stringIcSt11char_traitsIcESaIcEEESt6vectorIS6_SaIS6_EEEppEv
.L139:
	leaq	-128(%rbp), %rdx
	leaq	-184(%rbp), %rax
	movq	%rdx, %rsi
	movq	%rax, %rdi
	call	_ZN9__gnu_cxxneIPNSt7__cxx1112basic_stringIcSt11char_traitsIcESaIcEEESt6vectorIS6_SaIS6_EEEEbRKNS_17__normal_iteratorIT_T0_EESG_
	testb	%al, %al
	jne	.L144
	movq	-200(%rbp), %rax
	movq	%rax, %rdi
	call	_ZNSt8optionalIN3bbt6cxxlua6detail6LuaErrEEC1ESt9nullopt_t
.L143:
	leaq	-160(%rbp), %rax
	movq	%rax, %rdi
	call	_ZNSt6vectorINSt7__cxx1112basic_stringIcSt11char_traitsIcESaIcEEESaIS5_EED1Ev
	jmp	.L131
.L155:
	endbr64
	movq	%rax, %rbx
	leaq	-96(%rbp), %rax
	movq	%rax, %rdi
	call	_ZN3bbt6cxxlua6detail6LuaErrD1Ev
	movq	%rbx, %rax
	movq	%rax, %rdi
.LEHB22:
	call	_Unwind_Resume@PLT
.L158:
	endbr64
	movq	%rax, %rbx
	leaq	-128(%rbp), %rax
	movq	%rax, %rdi
	call	_ZNSt6vectorINSt7__cxx1112basic_stringIcSt11char_traitsIcESaIcEEESaIS5_EED1Ev
	jmp	.L148
.L157:
	endbr64
	movq	%rax, %rbx
.L148:
	leaq	-184(%rbp), %rax
	movq	%rax, %rdi
	call	_ZNSaINSt7__cxx1112basic_stringIcSt11char_traitsIcESaIcEEEED1Ev
	movq	%rbx, %r12
	leaq	-96(%rbp), %rbx
	addq	$32, %rbx
.L150:
	leaq	-96(%rbp), %rax
	cmpq	%rax, %rbx
	je	.L149
	subq	$32, %rbx
	movq	%rbx, %rdi
	call	_ZNSt7__cxx1112basic_stringIcSt11char_traitsIcESaIcEED1Ev@PLT
	jmp	.L150
.L149:
	movq	%r12, %rbx
	jmp	.L151
.L156:
	endbr64
	movq	%rax, %rbx
.L151:
	leaq	-185(%rbp), %rax
	movq	%rax, %rdi
	call	_ZNSaIcED1Ev@PLT
	movq	%rbx, %rax
	movq	%rax, %rdi
	call	_Unwind_Resume@PLT
.L160:
	endbr64
	movq	%rax, %rbx
	leaq	-96(%rbp), %rax
	movq	%rax, %rdi
	call	_ZNSt8optionalIN3bbt6cxxlua6detail6LuaErrEED1Ev
	jmp	.L153
.L159:
	endbr64
	movq	%rax, %rbx
.L153:
	leaq	-160(%rbp), %rax
	movq	%rax, %rdi
	call	_ZNSt6vectorINSt7__cxx1112basic_stringIcSt11char_traitsIcESaIcEEESaIS5_EED1Ev
	movq	%rbx, %rax
	movq	%rax, %rdi
	call	_Unwind_Resume@PLT
.LEHE22:
.L131:
	movq	-40(%rbp), %rax
	subq	%fs:40, %rax
	je	.L154
	call	__stack_chk_fail@PLT
.L154:
	movq	-200(%rbp), %rax
	addq	$200, %rsp
	popq	%rbx
	popq	%r12
	popq	%r13
	popq	%rbp
	.cfi_def_cfa 7, 8
	ret
	.cfi_endproc
.LFE4871:
	.section	.gcc_except_table
.LLSDA4871:
	.byte	0xff
	.byte	0xff
	.byte	0x1
	.uleb128 .LLSDACSE4871-.LLSDACSB4871
.LLSDACSB4871:
	.uleb128 .LEHB15-.LFB4871
	.uleb128 .LEHE15-.LEHB15
	.uleb128 0
	.uleb128 0
	.uleb128 .LEHB16-.LFB4871
	.uleb128 .LEHE16-.LEHB16
	.uleb128 .L155-.LFB4871
	.uleb128 0
	.uleb128 .LEHB17-.LFB4871
	.uleb128 .LEHE17-.LEHB17
	.uleb128 .L156-.LFB4871
	.uleb128 0
	.uleb128 .LEHB18-.LFB4871
	.uleb128 .LEHE18-.LEHB18
	.uleb128 .L157-.LFB4871
	.uleb128 0
	.uleb128 .LEHB19-.LFB4871
	.uleb128 .LEHE19-.LEHB19
	.uleb128 .L158-.LFB4871
	.uleb128 0
	.uleb128 .LEHB20-.LFB4871
	.uleb128 .LEHE20-.LEHB20
	.uleb128 .L159-.LFB4871
	.uleb128 0
	.uleb128 .LEHB21-.LFB4871
	.uleb128 .LEHE21-.LEHB21
	.uleb128 .L160-.LFB4871
	.uleb128 0
	.uleb128 .LEHB22-.LFB4871
	.uleb128 .LEHE22-.LEHB22
	.uleb128 0
	.uleb128 0
.LLSDACSE4871:
	.text
	.size	_ZN3bbt6cxxlua6detail8LuaStack10LoadFolderERKNSt7__cxx1112basic_stringIcSt11char_traitsIcESaIcEEE, .-_ZN3bbt6cxxlua6detail8LuaStack10LoadFolderERKNSt7__cxx1112basic_stringIcSt11char_traitsIcESaIcEEE
	.section	.rodata
.LC7:
	.string	"value name is invalid!"
	.text
	.align 2
	.globl	_ZN3bbt6cxxlua6detail8LuaStack21SetGlobalValueByIndexERKNSt7__cxx1112basic_stringIcSt11char_traitsIcESaIcEEERKNS1_6LuaRefE
	.type	_ZN3bbt6cxxlua6detail8LuaStack21SetGlobalValueByIndexERKNSt7__cxx1112basic_stringIcSt11char_traitsIcESaIcEEERKNS1_6LuaRefE, @function
_ZN3bbt6cxxlua6detail8LuaStack21SetGlobalValueByIndexERKNSt7__cxx1112basic_stringIcSt11char_traitsIcESaIcEEERKNS1_6LuaRefE:
.LFB4891:
	.cfi_startproc
	.cfi_personality 0x9b,DW.ref.__gxx_personality_v0
	.cfi_lsda 0x1b,.LLSDA4891
	endbr64
	pushq	%rbp
	.cfi_def_cfa_offset 16
	.cfi_offset 6, -16
	movq	%rsp, %rbp
	.cfi_def_cfa_register 6
	pushq	%rbx
	subq	$104, %rsp
	.cfi_offset 3, -24
	movq	%rdi, -88(%rbp)
	movq	%rsi, -96(%rbp)
	movq	%rdx, -104(%rbp)
	movq	%rcx, -112(%rbp)
	movq	%fs:40, %rax
	movq	%rax, -24(%rbp)
	xorl	%eax, %eax
	movq	-104(%rbp), %rax
	movq	%rax, %rdi
	call	_ZNKSt7__cxx1112basic_stringIcSt11char_traitsIcESaIcEE5emptyEv@PLT
	testb	%al, %al
	je	.L162
	leaq	-80(%rbp), %rax
	movl	$3, %edx
	leaq	.LC7(%rip), %rcx
	movq	%rcx, %rsi
	movq	%rax, %rdi
.LEHB23:
	call	_ZN3bbt6cxxlua6detail6LuaErrC1EPKcNS0_7ERRCODEE
.LEHE23:
	leaq	-80(%rbp), %rdx
	movq	-88(%rbp), %rax
	movq	%rdx, %rsi
	movq	%rax, %rdi
.LEHB24:
	call	_ZNSt8optionalIN3bbt6cxxlua6detail6LuaErrEEC1IS3_Lb1EEEOT_
.LEHE24:
	nop
	leaq	-80(%rbp), %rax
	movq	%rax, %rdi
	call	_ZN3bbt6cxxlua6detail6LuaErrD1Ev
	jmp	.L161
.L162:
	leaq	-80(%rbp), %rax
	movq	-112(%rbp), %rdx
	movq	-96(%rbp), %rcx
	movq	%rcx, %rsi
	movq	%rax, %rdi
.LEHB25:
	call	_ZN3bbt6cxxlua6detail8LuaStack8Copy2TopERKNS1_6LuaRefE
	leaq	-80(%rbp), %rax
	movq	%rax, %rdi
	call	_ZNSt8optionalIN3bbt6cxxlua6detail6LuaErrEED1Ev
	movq	-104(%rbp), %rax
	movq	%rax, %rdi
	call	_ZNKSt7__cxx1112basic_stringIcSt11char_traitsIcESaIcEE5c_strEv@PLT
	movq	%rax, %rbx
	movq	-96(%rbp), %rax
	movq	%rax, %rdi
	call	_ZN3bbt6cxxlua6detail8LuaStack7ContextEv
	movq	%rbx, %rsi
	movq	%rax, %rdi
	call	lua_setglobal@PLT
	movq	-88(%rbp), %rax
	movq	%rax, %rdi
	call	_ZNSt8optionalIN3bbt6cxxlua6detail6LuaErrEEC1ESt9nullopt_t
	jmp	.L161
.L166:
	endbr64
	movq	%rax, %rbx
	leaq	-80(%rbp), %rax
	movq	%rax, %rdi
	call	_ZN3bbt6cxxlua6detail6LuaErrD1Ev
	movq	%rbx, %rax
	movq	%rax, %rdi
	call	_Unwind_Resume@PLT
.LEHE25:
.L161:
	movq	-24(%rbp), %rax
	subq	%fs:40, %rax
	je	.L165
	call	__stack_chk_fail@PLT
.L165:
	movq	-88(%rbp), %rax
	movq	-8(%rbp), %rbx
	leave
	.cfi_def_cfa 7, 8
	ret
	.cfi_endproc
.LFE4891:
	.section	.gcc_except_table
.LLSDA4891:
	.byte	0xff
	.byte	0xff
	.byte	0x1
	.uleb128 .LLSDACSE4891-.LLSDACSB4891
.LLSDACSB4891:
	.uleb128 .LEHB23-.LFB4891
	.uleb128 .LEHE23-.LEHB23
	.uleb128 0
	.uleb128 0
	.uleb128 .LEHB24-.LFB4891
	.uleb128 .LEHE24-.LEHB24
	.uleb128 .L166-.LFB4891
	.uleb128 0
	.uleb128 .LEHB25-.LFB4891
	.uleb128 .LEHE25-.LEHB25
	.uleb128 0
	.uleb128 0
.LLSDACSE4891:
	.text
	.size	_ZN3bbt6cxxlua6detail8LuaStack21SetGlobalValueByIndexERKNSt7__cxx1112basic_stringIcSt11char_traitsIcESaIcEEERKNS1_6LuaRefE, .-_ZN3bbt6cxxlua6detail8LuaStack21SetGlobalValueByIndexERKNSt7__cxx1112basic_stringIcSt11char_traitsIcESaIcEEERKNS1_6LuaRefE
	.section	.text._ZNSt4pairISt8optionalIN3bbt6cxxlua6detail6LuaErrEENS3_7LUATYPEEED2Ev,"axG",@progbits,_ZNSt4pairISt8optionalIN3bbt6cxxlua6detail6LuaErrEENS3_7LUATYPEEED5Ev,comdat
	.align 2
	.weak	_ZNSt4pairISt8optionalIN3bbt6cxxlua6detail6LuaErrEENS3_7LUATYPEEED2Ev
	.type	_ZNSt4pairISt8optionalIN3bbt6cxxlua6detail6LuaErrEENS3_7LUATYPEEED2Ev, @function
_ZNSt4pairISt8optionalIN3bbt6cxxlua6detail6LuaErrEENS3_7LUATYPEEED2Ev:
.LFB4894:
	.cfi_startproc
	endbr64
	pushq	%rbp
	.cfi_def_cfa_offset 16
	.cfi_offset 6, -16
	movq	%rsp, %rbp
	.cfi_def_cfa_register 6
	subq	$16, %rsp
	movq	%rdi, -8(%rbp)
	movq	-8(%rbp), %rax
	movq	%rax, %rdi
	call	_ZNSt8optionalIN3bbt6cxxlua6detail6LuaErrEED1Ev
	nop
	leave
	.cfi_def_cfa 7, 8
	ret
	.cfi_endproc
.LFE4894:
	.size	_ZNSt4pairISt8optionalIN3bbt6cxxlua6detail6LuaErrEENS3_7LUATYPEEED2Ev, .-_ZNSt4pairISt8optionalIN3bbt6cxxlua6detail6LuaErrEENS3_7LUATYPEEED2Ev
	.weak	_ZNSt4pairISt8optionalIN3bbt6cxxlua6detail6LuaErrEENS3_7LUATYPEEED1Ev
	.set	_ZNSt4pairISt8optionalIN3bbt6cxxlua6detail6LuaErrEENS3_7LUATYPEEED1Ev,_ZNSt4pairISt8optionalIN3bbt6cxxlua6detail6LuaErrEENS3_7LUATYPEEED2Ev
	.text
	.align 2
	.globl	_ZN3bbt6cxxlua6detail8LuaStack9Pop4TableEi
	.type	_ZN3bbt6cxxlua6detail8LuaStack9Pop4TableEi, @function
_ZN3bbt6cxxlua6detail8LuaStack9Pop4TableEi:
.LFB4892:
	.cfi_startproc
	endbr64
	pushq	%rbp
	.cfi_def_cfa_offset 16
	.cfi_offset 6, -16
	movq	%rsp, %rbp
	.cfi_def_cfa_register 6
	subq	$48, %rsp
	movq	%rdi, -24(%rbp)
	movq	%rsi, -32(%rbp)
	movl	%edx, -36(%rbp)
	movq	%fs:40, %rax
	movq	%rax, -8(%rbp)
	xorl	%eax, %eax
	movq	-24(%rbp), %rax
	movl	-36(%rbp), %edx
	movq	-32(%rbp), %rcx
	movq	%rcx, %rsi
	movq	%rax, %rdi
	call	_ZN3bbt6cxxlua6detail8LuaStack12__CheckTableEi
	movq	-8(%rbp), %rax
	subq	%fs:40, %rax
	je	.L170
	call	__stack_chk_fail@PLT
.L170:
	movq	-24(%rbp), %rax
	leave
	.cfi_def_cfa 7, 8
	ret
	.cfi_endproc
.LFE4892:
	.size	_ZN3bbt6cxxlua6detail8LuaStack9Pop4TableEi, .-_ZN3bbt6cxxlua6detail8LuaStack9Pop4TableEi
	.align 2
	.globl	_ZN3bbt6cxxlua6detail8LuaStack9Pop4TableERKNSt7__cxx1112basic_stringIcSt11char_traitsIcESaIcEEE
	.type	_ZN3bbt6cxxlua6detail8LuaStack9Pop4TableERKNSt7__cxx1112basic_stringIcSt11char_traitsIcESaIcEEE, @function
_ZN3bbt6cxxlua6detail8LuaStack9Pop4TableERKNSt7__cxx1112basic_stringIcSt11char_traitsIcESaIcEEE:
.LFB4896:
	.cfi_startproc
	endbr64
	pushq	%rbp
	.cfi_def_cfa_offset 16
	.cfi_offset 6, -16
	movq	%rsp, %rbp
	.cfi_def_cfa_register 6
	subq	$48, %rsp
	movq	%rdi, -24(%rbp)
	movq	%rsi, -32(%rbp)
	movq	%rdx, -40(%rbp)
	movq	%fs:40, %rax
	movq	%rax, -8(%rbp)
	xorl	%eax, %eax
	movq	-24(%rbp), %rax
	movq	-40(%rbp), %rdx
	movq	-32(%rbp), %rcx
	movq	%rcx, %rsi
	movq	%rax, %rdi
	call	_ZN3bbt6cxxlua6detail8LuaStack12__CheckTableERKNSt7__cxx1112basic_stringIcSt11char_traitsIcESaIcEEE
	movq	-8(%rbp), %rax
	subq	%fs:40, %rax
	je	.L173
	call	__stack_chk_fail@PLT
.L173:
	movq	-24(%rbp), %rax
	leave
	.cfi_def_cfa 7, 8
	ret
	.cfi_endproc
.LFE4896:
	.size	_ZN3bbt6cxxlua6detail8LuaStack9Pop4TableERKNSt7__cxx1112basic_stringIcSt11char_traitsIcESaIcEEE, .-_ZN3bbt6cxxlua6detail8LuaStack9Pop4TableERKNSt7__cxx1112basic_stringIcSt11char_traitsIcESaIcEEE
	.align 2
	.globl	_ZN3bbt6cxxlua6detail8LuaStack12__CheckTableERKNSt7__cxx1112basic_stringIcSt11char_traitsIcESaIcEEE
	.type	_ZN3bbt6cxxlua6detail8LuaStack12__CheckTableERKNSt7__cxx1112basic_stringIcSt11char_traitsIcESaIcEEE, @function
_ZN3bbt6cxxlua6detail8LuaStack12__CheckTableERKNSt7__cxx1112basic_stringIcSt11char_traitsIcESaIcEEE:
.LFB4897:
	.cfi_startproc
	.cfi_personality 0x9b,DW.ref.__gxx_personality_v0
	.cfi_lsda 0x1b,.LLSDA4897
	endbr64
	pushq	%rbp
	.cfi_def_cfa_offset 16
	.cfi_offset 6, -16
	movq	%rsp, %rbp
	.cfi_def_cfa_register 6
	pushq	%rbx
	subq	$120, %rsp
	.cfi_offset 3, -24
	movq	%rdi, -104(%rbp)
	movq	%rsi, -112(%rbp)
	movq	%rdx, -120(%rbp)
	movq	%fs:40, %rax
	movq	%rax, -24(%rbp)
	xorl	%eax, %eax
	movq	-112(%rbp), %rax
	movq	%rax, %rdi
	call	_ZN3bbt6cxxlua6detail8LuaStack7ContextEv
	movl	$-1, %esi
	movq	%rax, %rdi
.LEHB26:
	call	lua_type@PLT
	movl	%eax, -84(%rbp)
	cmpl	$0, -84(%rbp)
	js	.L175
	cmpl	$9, -84(%rbp)
	jle	.L176
.L175:
	leaq	-80(%rbp), %rax
	movl	$10, %edx
	leaq	.LC1(%rip), %rcx
	movq	%rcx, %rsi
	movq	%rax, %rdi
	call	_ZN3bbt6cxxlua6detail6LuaErrC1EPKcNS0_7ERRCODEE
.LEHE26:
	movl	-84(%rbp), %eax
	movl	%eax, -88(%rbp)
	leaq	-88(%rbp), %rdx
	leaq	-80(%rbp), %rcx
	movq	-104(%rbp), %rax
	movq	%rcx, %rsi
	movq	%rax, %rdi
.LEHB27:
	call	_ZNSt4pairISt8optionalIN3bbt6cxxlua6detail6LuaErrEENS3_7LUATYPEEEC1IS4_S6_Lb1EEEOT_OT0_
.LEHE27:
	nop
	leaq	-80(%rbp), %rax
	movq	%rax, %rdi
	call	_ZN3bbt6cxxlua6detail6LuaErrD1Ev
	jmp	.L174
.L176:
	movq	-120(%rbp), %rax
	movq	%rax, %rdi
	call	_ZNKSt7__cxx1112basic_stringIcSt11char_traitsIcESaIcEE5c_strEv@PLT
	movq	%rax, %rbx
	movq	-112(%rbp), %rax
	movq	%rax, %rdi
	call	_ZN3bbt6cxxlua6detail8LuaStack7ContextEv
	movq	%rbx, %rsi
	movq	%rax, %rdi
.LEHB28:
	call	lua_pushstring@PLT
	movq	-112(%rbp), %rax
	movq	%rax, %rdi
	call	_ZN3bbt6cxxlua6detail8LuaStack7ContextEv
	movl	$-2, %esi
	movq	%rax, %rdi
	call	lua_gettable@PLT
	testl	%eax, %eax
	setne	%al
	testb	%al, %al
	je	.L178
	movq	-112(%rbp), %rax
	movq	%rax, %rdi
	call	_ZN3bbt6cxxlua6detail8LuaStack7ContextEv
	movl	$0, %edx
	movl	$-1, %esi
	movq	%rax, %rdi
	call	lua_tolstring@PLT
	movq	%rax, %rcx
	leaq	-80(%rbp), %rax
	movl	$6, %edx
	movq	%rcx, %rsi
	movq	%rax, %rdi
	call	_ZN3bbt6cxxlua6detail6LuaErrC1EPKcNS0_7ERRCODEE
.LEHE28:
	movl	-84(%rbp), %eax
	movl	%eax, -88(%rbp)
	leaq	-88(%rbp), %rdx
	leaq	-80(%rbp), %rcx
	movq	-104(%rbp), %rax
	movq	%rcx, %rsi
	movq	%rax, %rdi
.LEHB29:
	call	_ZNSt4pairISt8optionalIN3bbt6cxxlua6detail6LuaErrEENS3_7LUATYPEEEC1IS4_S6_Lb1EEEOT_OT0_
.LEHE29:
	nop
	leaq	-80(%rbp), %rax
	movq	%rax, %rdi
	call	_ZN3bbt6cxxlua6detail6LuaErrD1Ev
	jmp	.L174
.L178:
	movq	-112(%rbp), %rax
	movq	%rax, %rdi
	call	_ZN3bbt6cxxlua6detail8LuaStack7ContextEv
	movl	$-1, %esi
	movq	%rax, %rdi
.LEHB30:
	call	lua_type@PLT
	movl	%eax, -84(%rbp)
	movl	-84(%rbp), %eax
	movl	%eax, -88(%rbp)
	leaq	-88(%rbp), %rdx
	movq	-104(%rbp), %rax
	leaq	_ZSt7nullopt(%rip), %rcx
	movq	%rcx, %rsi
	movq	%rax, %rdi
	call	_ZNSt4pairISt8optionalIN3bbt6cxxlua6detail6LuaErrEENS3_7LUATYPEEEC1IRKSt9nullopt_tS6_Lb1EEEOT_OT0_
	jmp	.L174
.L182:
	endbr64
	movq	%rax, %rbx
	leaq	-80(%rbp), %rax
	movq	%rax, %rdi
	call	_ZN3bbt6cxxlua6detail6LuaErrD1Ev
	movq	%rbx, %rax
	movq	%rax, %rdi
	call	_Unwind_Resume@PLT
.L183:
	endbr64
	movq	%rax, %rbx
	leaq	-80(%rbp), %rax
	movq	%rax, %rdi
	call	_ZN3bbt6cxxlua6detail6LuaErrD1Ev
	movq	%rbx, %rax
	movq	%rax, %rdi
	call	_Unwind_Resume@PLT
.LEHE30:
.L174:
	movq	-24(%rbp), %rax
	subq	%fs:40, %rax
	je	.L181
	call	__stack_chk_fail@PLT
.L181:
	movq	-104(%rbp), %rax
	movq	-8(%rbp), %rbx
	leave
	.cfi_def_cfa 7, 8
	ret
	.cfi_endproc
.LFE4897:
	.section	.gcc_except_table
.LLSDA4897:
	.byte	0xff
	.byte	0xff
	.byte	0x1
	.uleb128 .LLSDACSE4897-.LLSDACSB4897
.LLSDACSB4897:
	.uleb128 .LEHB26-.LFB4897
	.uleb128 .LEHE26-.LEHB26
	.uleb128 0
	.uleb128 0
	.uleb128 .LEHB27-.LFB4897
	.uleb128 .LEHE27-.LEHB27
	.uleb128 .L182-.LFB4897
	.uleb128 0
	.uleb128 .LEHB28-.LFB4897
	.uleb128 .LEHE28-.LEHB28
	.uleb128 0
	.uleb128 0
	.uleb128 .LEHB29-.LFB4897
	.uleb128 .LEHE29-.LEHB29
	.uleb128 .L183-.LFB4897
	.uleb128 0
	.uleb128 .LEHB30-.LFB4897
	.uleb128 .LEHE30-.LEHB30
	.uleb128 0
	.uleb128 0
.LLSDACSE4897:
	.text
	.size	_ZN3bbt6cxxlua6detail8LuaStack12__CheckTableERKNSt7__cxx1112basic_stringIcSt11char_traitsIcESaIcEEE, .-_ZN3bbt6cxxlua6detail8LuaStack12__CheckTableERKNSt7__cxx1112basic_stringIcSt11char_traitsIcESaIcEEE
	.align 2
	.globl	_ZN3bbt6cxxlua6detail8LuaStack12__CheckTableEi
	.type	_ZN3bbt6cxxlua6detail8LuaStack12__CheckTableEi, @function
_ZN3bbt6cxxlua6detail8LuaStack12__CheckTableEi:
.LFB4898:
	.cfi_startproc
	.cfi_personality 0x9b,DW.ref.__gxx_personality_v0
	.cfi_lsda 0x1b,.LLSDA4898
	endbr64
	pushq	%rbp
	.cfi_def_cfa_offset 16
	.cfi_offset 6, -16
	movq	%rsp, %rbp
	.cfi_def_cfa_register 6
	pushq	%rbx
	subq	$120, %rsp
	.cfi_offset 3, -24
	movq	%rdi, -104(%rbp)
	movq	%rsi, -112(%rbp)
	movl	%edx, -116(%rbp)
	movq	%fs:40, %rax
	movq	%rax, -24(%rbp)
	xorl	%eax, %eax
	movq	-112(%rbp), %rax
	movq	%rax, %rdi
	call	_ZN3bbt6cxxlua6detail8LuaStack7ContextEv
	movl	$-1, %esi
	movq	%rax, %rdi
.LEHB31:
	call	lua_type@PLT
	movl	%eax, -88(%rbp)
	cmpl	$0, -88(%rbp)
	js	.L185
	cmpl	$9, -88(%rbp)
	jle	.L186
.L185:
	leaq	-80(%rbp), %rax
	movl	$10, %edx
	leaq	.LC1(%rip), %rcx
	movq	%rcx, %rsi
	movq	%rax, %rdi
	call	_ZN3bbt6cxxlua6detail6LuaErrC1EPKcNS0_7ERRCODEE
.LEHE31:
	movl	-88(%rbp), %eax
	movl	%eax, -92(%rbp)
	leaq	-92(%rbp), %rdx
	leaq	-80(%rbp), %rcx
	movq	-104(%rbp), %rax
	movq	%rcx, %rsi
	movq	%rax, %rdi
.LEHB32:
	call	_ZNSt4pairISt8optionalIN3bbt6cxxlua6detail6LuaErrEENS3_7LUATYPEEEC1IS4_S6_Lb1EEEOT_OT0_
.LEHE32:
	nop
	leaq	-80(%rbp), %rax
	movq	%rax, %rdi
	call	_ZN3bbt6cxxlua6detail6LuaErrD1Ev
	jmp	.L184
.L186:
	movl	-116(%rbp), %eax
	movslq	%eax, %rbx
	movq	-112(%rbp), %rax
	movq	%rax, %rdi
	call	_ZN3bbt6cxxlua6detail8LuaStack7ContextEv
	movq	%rbx, %rsi
	movq	%rax, %rdi
.LEHB33:
	call	lua_pushinteger@PLT
	movq	-112(%rbp), %rax
	movq	%rax, %rdi
	call	_ZN3bbt6cxxlua6detail8LuaStack7ContextEv
	movl	$-2, %esi
	movq	%rax, %rdi
	call	lua_gettable@PLT
	movl	%eax, -84(%rbp)
	cmpl	$0, -84(%rbp)
	je	.L188
	movq	-112(%rbp), %rax
	movq	%rax, %rdi
	call	_ZN3bbt6cxxlua6detail8LuaStack7ContextEv
	movl	$0, %edx
	movl	$-1, %esi
	movq	%rax, %rdi
	call	lua_tolstring@PLT
	movq	%rax, %rcx
	leaq	-80(%rbp), %rax
	movl	$6, %edx
	movq	%rcx, %rsi
	movq	%rax, %rdi
	call	_ZN3bbt6cxxlua6detail6LuaErrC1EPKcNS0_7ERRCODEE
.LEHE33:
	movl	-88(%rbp), %eax
	movl	%eax, -92(%rbp)
	leaq	-92(%rbp), %rdx
	leaq	-80(%rbp), %rcx
	movq	-104(%rbp), %rax
	movq	%rcx, %rsi
	movq	%rax, %rdi
.LEHB34:
	call	_ZNSt4pairISt8optionalIN3bbt6cxxlua6detail6LuaErrEENS3_7LUATYPEEEC1IS4_S6_Lb1EEEOT_OT0_
.LEHE34:
	nop
	leaq	-80(%rbp), %rax
	movq	%rax, %rdi
	call	_ZN3bbt6cxxlua6detail6LuaErrD1Ev
	jmp	.L184
.L188:
	movq	-112(%rbp), %rax
	movq	%rax, %rdi
	call	_ZN3bbt6cxxlua6detail8LuaStack7ContextEv
	movl	$-1, %esi
	movq	%rax, %rdi
.LEHB35:
	call	lua_type@PLT
	movl	%eax, -88(%rbp)
	movl	-88(%rbp), %eax
	movl	%eax, -92(%rbp)
	leaq	-92(%rbp), %rdx
	movq	-104(%rbp), %rax
	leaq	_ZSt7nullopt(%rip), %rcx
	movq	%rcx, %rsi
	movq	%rax, %rdi
	call	_ZNSt4pairISt8optionalIN3bbt6cxxlua6detail6LuaErrEENS3_7LUATYPEEEC1IRKSt9nullopt_tS6_Lb1EEEOT_OT0_
	jmp	.L184
.L192:
	endbr64
	movq	%rax, %rbx
	leaq	-80(%rbp), %rax
	movq	%rax, %rdi
	call	_ZN3bbt6cxxlua6detail6LuaErrD1Ev
	movq	%rbx, %rax
	movq	%rax, %rdi
	call	_Unwind_Resume@PLT
.L193:
	endbr64
	movq	%rax, %rbx
	leaq	-80(%rbp), %rax
	movq	%rax, %rdi
	call	_ZN3bbt6cxxlua6detail6LuaErrD1Ev
	movq	%rbx, %rax
	movq	%rax, %rdi
	call	_Unwind_Resume@PLT
.LEHE35:
.L184:
	movq	-24(%rbp), %rax
	subq	%fs:40, %rax
	je	.L191
	call	__stack_chk_fail@PLT
.L191:
	movq	-104(%rbp), %rax
	movq	-8(%rbp), %rbx
	leave
	.cfi_def_cfa 7, 8
	ret
	.cfi_endproc
.LFE4898:
	.section	.gcc_except_table
.LLSDA4898:
	.byte	0xff
	.byte	0xff
	.byte	0x1
	.uleb128 .LLSDACSE4898-.LLSDACSB4898
.LLSDACSB4898:
	.uleb128 .LEHB31-.LFB4898
	.uleb128 .LEHE31-.LEHB31
	.uleb128 0
	.uleb128 0
	.uleb128 .LEHB32-.LFB4898
	.uleb128 .LEHE32-.LEHB32
	.uleb128 .L192-.LFB4898
	.uleb128 0
	.uleb128 .LEHB33-.LFB4898
	.uleb128 .LEHE33-.LEHB33
	.uleb128 0
	.uleb128 0
	.uleb128 .LEHB34-.LFB4898
	.uleb128 .LEHE34-.LEHB34
	.uleb128 .L193-.LFB4898
	.uleb128 0
	.uleb128 .LEHB35-.LFB4898
	.uleb128 .LEHE35-.LEHB35
	.uleb128 0
	.uleb128 0
.LLSDACSE4898:
	.text
	.size	_ZN3bbt6cxxlua6detail8LuaStack12__CheckTableEi, .-_ZN3bbt6cxxlua6detail8LuaStack12__CheckTableEi
	.align 2
	.globl	_ZN3bbt6cxxlua6detail8LuaStack16__GetGlobalValueERKNSt7__cxx1112basic_stringIcSt11char_traitsIcESaIcEEE
	.type	_ZN3bbt6cxxlua6detail8LuaStack16__GetGlobalValueERKNSt7__cxx1112basic_stringIcSt11char_traitsIcESaIcEEE, @function
_ZN3bbt6cxxlua6detail8LuaStack16__GetGlobalValueERKNSt7__cxx1112basic_stringIcSt11char_traitsIcESaIcEEE:
.LFB4899:
	.cfi_startproc
	endbr64
	pushq	%rbp
	.cfi_def_cfa_offset 16
	.cfi_offset 6, -16
	movq	%rsp, %rbp
	.cfi_def_cfa_register 6
	pushq	%rbx
	subq	$40, %rsp
	.cfi_offset 3, -24
	movq	%rdi, -40(%rbp)
	movq	%rsi, -48(%rbp)
	movq	-48(%rbp), %rax
	movq	%rax, %rdi
	call	_ZNKSt7__cxx1112basic_stringIcSt11char_traitsIcESaIcEE5emptyEv@PLT
	testb	%al, %al
	je	.L195
	movl	$-1, %eax
	jmp	.L196
.L195:
	movq	-48(%rbp), %rax
	movq	%rax, %rdi
	call	_ZNKSt7__cxx1112basic_stringIcSt11char_traitsIcESaIcEE5c_strEv@PLT
	movq	%rax, %rbx
	movq	-40(%rbp), %rax
	movq	%rax, %rdi
	call	_ZN3bbt6cxxlua6detail8LuaStack7ContextEv
	movq	%rbx, %rsi
	movq	%rax, %rdi
	call	lua_getglobal@PLT
	movl	%eax, -20(%rbp)
	cmpl	$0, -20(%rbp)
	js	.L197
	cmpl	$9, -20(%rbp)
	jle	.L198
.L197:
	movl	$0, %eax
	jmp	.L196
.L198:
	movl	-20(%rbp), %eax
.L196:
	movq	-8(%rbp), %rbx
	leave
	.cfi_def_cfa 7, 8
	ret
	.cfi_endproc
.LFE4899:
	.size	_ZN3bbt6cxxlua6detail8LuaStack16__GetGlobalValueERKNSt7__cxx1112basic_stringIcSt11char_traitsIcESaIcEEE, .-_ZN3bbt6cxxlua6detail8LuaStack16__GetGlobalValueERKNSt7__cxx1112basic_stringIcSt11char_traitsIcESaIcEEE
	.align 2
	.globl	_ZN3bbt6cxxlua6detail8LuaStack16__SetGlobalValueERKNSt7__cxx1112basic_stringIcSt11char_traitsIcESaIcEEE
	.type	_ZN3bbt6cxxlua6detail8LuaStack16__SetGlobalValueERKNSt7__cxx1112basic_stringIcSt11char_traitsIcESaIcEEE, @function
_ZN3bbt6cxxlua6detail8LuaStack16__SetGlobalValueERKNSt7__cxx1112basic_stringIcSt11char_traitsIcESaIcEEE:
.LFB4900:
	.cfi_startproc
	endbr64
	pushq	%rbp
	.cfi_def_cfa_offset 16
	.cfi_offset 6, -16
	movq	%rsp, %rbp
	.cfi_def_cfa_register 6
	pushq	%rbx
	subq	$40, %rsp
	.cfi_offset 3, -24
	movq	%rdi, -24(%rbp)
	movq	%rsi, -32(%rbp)
	movq	%rdx, -40(%rbp)
	movq	-40(%rbp), %rax
	movq	%rax, %rdi
	call	_ZNKSt7__cxx1112basic_stringIcSt11char_traitsIcESaIcEE5c_strEv@PLT
	movq	%rax, %rbx
	movq	-32(%rbp), %rax
	movq	%rax, %rdi
	call	_ZN3bbt6cxxlua6detail8LuaStack7ContextEv
	movq	%rbx, %rsi
	movq	%rax, %rdi
	call	lua_setglobal@PLT
	movq	-24(%rbp), %rax
	movq	%rax, %rdi
	call	_ZNSt8optionalIN3bbt6cxxlua6detail6LuaErrEEC1ESt9nullopt_t
	movq	-24(%rbp), %rax
	movq	-8(%rbp), %rbx
	leave
	.cfi_def_cfa 7, 8
	ret
	.cfi_endproc
.LFE4900:
	.size	_ZN3bbt6cxxlua6detail8LuaStack16__SetGlobalValueERKNSt7__cxx1112basic_stringIcSt11char_traitsIcESaIcEEE, .-_ZN3bbt6cxxlua6detail8LuaStack16__SetGlobalValueERKNSt7__cxx1112basic_stringIcSt11char_traitsIcESaIcEEE
	.align 2
	.globl	_ZN3bbt6cxxlua6detail8LuaStack4PushEi
	.type	_ZN3bbt6cxxlua6detail8LuaStack4PushEi, @function
_ZN3bbt6cxxlua6detail8LuaStack4PushEi:
.LFB4901:
	.cfi_startproc
	endbr64
	pushq	%rbp
	.cfi_def_cfa_offset 16
	.cfi_offset 6, -16
	movq	%rsp, %rbp
	.cfi_def_cfa_register 6
	pushq	%rbx
	subq	$24, %rsp
	.cfi_offset 3, -24
	movq	%rdi, -24(%rbp)
	movl	%esi, -28(%rbp)
	movl	-28(%rbp), %eax
	movslq	%eax, %rbx
	movq	-24(%rbp), %rax
	movq	%rax, %rdi
	call	_ZN3bbt6cxxlua6detail8LuaStack7ContextEv
	movq	%rbx, %rsi
	movq	%rax, %rdi
	call	lua_pushinteger@PLT
	movq	-24(%rbp), %rax
	leaq	_ZN3bbt6cxxlua6detailL13g_lua_top_refE(%rip), %rdx
	movq	%rdx, %rsi
	movq	%rax, %rdi
	call	_ZN3bbt6cxxlua6detail8LuaStack7GetTypeERKNS1_6LuaRefE
	movq	-8(%rbp), %rbx
	leave
	.cfi_def_cfa 7, 8
	ret
	.cfi_endproc
.LFE4901:
	.size	_ZN3bbt6cxxlua6detail8LuaStack4PushEi, .-_ZN3bbt6cxxlua6detail8LuaStack4PushEi
	.align 2
	.globl	_ZN3bbt6cxxlua6detail8LuaStack4PushEd
	.type	_ZN3bbt6cxxlua6detail8LuaStack4PushEd, @function
_ZN3bbt6cxxlua6detail8LuaStack4PushEd:
.LFB4902:
	.cfi_startproc
	endbr64
	pushq	%rbp
	.cfi_def_cfa_offset 16
	.cfi_offset 6, -16
	movq	%rsp, %rbp
	.cfi_def_cfa_register 6
	subq	$16, %rsp
	movq	%rdi, -8(%rbp)
	movsd	%xmm0, -16(%rbp)
	movq	-8(%rbp), %rax
	movq	%rax, %rdi
	call	_ZN3bbt6cxxlua6detail8LuaStack7ContextEv
	movq	%rax, %rdx
	movq	-16(%rbp), %rax
	movq	%rax, %xmm0
	movq	%rdx, %rdi
	call	lua_pushnumber@PLT
	movq	-8(%rbp), %rax
	leaq	_ZN3bbt6cxxlua6detailL13g_lua_top_refE(%rip), %rdx
	movq	%rdx, %rsi
	movq	%rax, %rdi
	call	_ZN3bbt6cxxlua6detail8LuaStack7GetTypeERKNS1_6LuaRefE
	leave
	.cfi_def_cfa 7, 8
	ret
	.cfi_endproc
.LFE4902:
	.size	_ZN3bbt6cxxlua6detail8LuaStack4PushEd, .-_ZN3bbt6cxxlua6detail8LuaStack4PushEd
	.align 2
	.globl	_ZN3bbt6cxxlua6detail8LuaStack4PushERKNSt7__cxx1112basic_stringIcSt11char_traitsIcESaIcEEE
	.type	_ZN3bbt6cxxlua6detail8LuaStack4PushERKNSt7__cxx1112basic_stringIcSt11char_traitsIcESaIcEEE, @function
_ZN3bbt6cxxlua6detail8LuaStack4PushERKNSt7__cxx1112basic_stringIcSt11char_traitsIcESaIcEEE:
.LFB4903:
	.cfi_startproc
	endbr64
	pushq	%rbp
	.cfi_def_cfa_offset 16
	.cfi_offset 6, -16
	movq	%rsp, %rbp
	.cfi_def_cfa_register 6
	pushq	%rbx
	subq	$40, %rsp
	.cfi_offset 3, -24
	movq	%rdi, -40(%rbp)
	movq	%rsi, -48(%rbp)
	movq	-48(%rbp), %rax
	movq	%rax, %rdi
	call	_ZNKSt7__cxx1112basic_stringIcSt11char_traitsIcESaIcEE5c_strEv@PLT
	movq	%rax, %rbx
	movq	-40(%rbp), %rax
	movq	%rax, %rdi
	call	_ZN3bbt6cxxlua6detail8LuaStack7ContextEv
	movq	%rbx, %rsi
	movq	%rax, %rdi
	call	lua_pushstring@PLT
	movq	%rax, -24(%rbp)
	cmpq	$0, -24(%rbp)
	jne	.L206
	movl	$0, %eax
	jmp	.L207
.L206:
	movq	-40(%rbp), %rax
	leaq	_ZN3bbt6cxxlua6detailL13g_lua_top_refE(%rip), %rdx
	movq	%rdx, %rsi
	movq	%rax, %rdi
	call	_ZN3bbt6cxxlua6detail8LuaStack7GetTypeERKNS1_6LuaRefE
	nop
.L207:
	movq	-8(%rbp), %rbx
	leave
	.cfi_def_cfa 7, 8
	ret
	.cfi_endproc
.LFE4903:
	.size	_ZN3bbt6cxxlua6detail8LuaStack4PushERKNSt7__cxx1112basic_stringIcSt11char_traitsIcESaIcEEE, .-_ZN3bbt6cxxlua6detail8LuaStack4PushERKNSt7__cxx1112basic_stringIcSt11char_traitsIcESaIcEEE
	.align 2
	.globl	_ZN3bbt6cxxlua6detail8LuaStack4PushEPKc
	.type	_ZN3bbt6cxxlua6detail8LuaStack4PushEPKc, @function
_ZN3bbt6cxxlua6detail8LuaStack4PushEPKc:
.LFB4904:
	.cfi_startproc
	endbr64
	pushq	%rbp
	.cfi_def_cfa_offset 16
	.cfi_offset 6, -16
	movq	%rsp, %rbp
	.cfi_def_cfa_register 6
	subq	$32, %rsp
	movq	%rdi, -24(%rbp)
	movq	%rsi, -32(%rbp)
	movq	-24(%rbp), %rax
	movq	%rax, %rdi
	call	_ZN3bbt6cxxlua6detail8LuaStack7ContextEv
	movq	%rax, %rdx
	movq	-32(%rbp), %rax
	movq	%rax, %rsi
	movq	%rdx, %rdi
	call	lua_pushstring@PLT
	movq	%rax, -8(%rbp)
	cmpq	$0, -8(%rbp)
	jne	.L209
	movl	$0, %eax
	jmp	.L210
.L209:
	movq	-24(%rbp), %rax
	leaq	_ZN3bbt6cxxlua6detailL13g_lua_top_refE(%rip), %rdx
	movq	%rdx, %rsi
	movq	%rax, %rdi
	call	_ZN3bbt6cxxlua6detail8LuaStack7GetTypeERKNS1_6LuaRefE
	nop
.L210:
	leave
	.cfi_def_cfa 7, 8
	ret
	.cfi_endproc
.LFE4904:
	.size	_ZN3bbt6cxxlua6detail8LuaStack4PushEPKc, .-_ZN3bbt6cxxlua6detail8LuaStack4PushEPKc
	.align 2
	.globl	_ZN3bbt6cxxlua6detail8LuaStack4PushEPFiP9lua_StateE
	.type	_ZN3bbt6cxxlua6detail8LuaStack4PushEPFiP9lua_StateE, @function
_ZN3bbt6cxxlua6detail8LuaStack4PushEPFiP9lua_StateE:
.LFB4905:
	.cfi_startproc
	endbr64
	pushq	%rbp
	.cfi_def_cfa_offset 16
	.cfi_offset 6, -16
	movq	%rsp, %rbp
	.cfi_def_cfa_register 6
	subq	$16, %rsp
	movq	%rdi, -8(%rbp)
	movq	%rsi, -16(%rbp)
	movq	-8(%rbp), %rax
	movq	%rax, %rdi
	call	_ZN3bbt6cxxlua6detail8LuaStack7ContextEv
	movq	%rax, %rcx
	movq	-16(%rbp), %rax
	movl	$0, %edx
	movq	%rax, %rsi
	movq	%rcx, %rdi
	call	lua_pushcclosure@PLT
	movq	-8(%rbp), %rax
	leaq	_ZN3bbt6cxxlua6detailL13g_lua_top_refE(%rip), %rdx
	movq	%rdx, %rsi
	movq	%rax, %rdi
	call	_ZN3bbt6cxxlua6detail8LuaStack7GetTypeERKNS1_6LuaRefE
	leave
	.cfi_def_cfa 7, 8
	ret
	.cfi_endproc
.LFE4905:
	.size	_ZN3bbt6cxxlua6detail8LuaStack4PushEPFiP9lua_StateE, .-_ZN3bbt6cxxlua6detail8LuaStack4PushEPFiP9lua_StateE
	.align 2
	.globl	_ZN3bbt6cxxlua6detail8LuaStack4PushERKNS1_6LuaRefE
	.type	_ZN3bbt6cxxlua6detail8LuaStack4PushERKNS1_6LuaRefE, @function
_ZN3bbt6cxxlua6detail8LuaStack4PushERKNS1_6LuaRefE:
.LFB4906:
	.cfi_startproc
	endbr64
	pushq	%rbp
	.cfi_def_cfa_offset 16
	.cfi_offset 6, -16
	movq	%rsp, %rbp
	.cfi_def_cfa_register 6
	pushq	%rbx
	subq	$24, %rsp
	.cfi_offset 3, -24
	movq	%rdi, -24(%rbp)
	movq	%rsi, -32(%rbp)
	movq	-32(%rbp), %rax
	movq	%rax, %rdi
	call	_ZNK3bbt6cxxlua6detail6LuaRef8GetIndexEv
	movl	%eax, %ebx
	movq	-24(%rbp), %rax
	movq	%rax, %rdi
	call	_ZN3bbt6cxxlua6detail8LuaStack7ContextEv
	movl	%ebx, %esi
	movq	%rax, %rdi
	call	lua_pushvalue@PLT
	movq	-24(%rbp), %rax
	leaq	_ZN3bbt6cxxlua6detailL13g_lua_top_refE(%rip), %rdx
	movq	%rdx, %rsi
	movq	%rax, %rdi
	call	_ZN3bbt6cxxlua6detail8LuaStack7GetTypeERKNS1_6LuaRefE
	movq	-8(%rbp), %rbx
	leave
	.cfi_def_cfa 7, 8
	ret
	.cfi_endproc
.LFE4906:
	.size	_ZN3bbt6cxxlua6detail8LuaStack4PushERKNS1_6LuaRefE, .-_ZN3bbt6cxxlua6detail8LuaStack4PushERKNS1_6LuaRefE
	.align 2
	.globl	_ZN3bbt6cxxlua6detail8LuaStack8PushManyEv
	.type	_ZN3bbt6cxxlua6detail8LuaStack8PushManyEv, @function
_ZN3bbt6cxxlua6detail8LuaStack8PushManyEv:
.LFB4907:
	.cfi_startproc
	endbr64
	pushq	%rbp
	.cfi_def_cfa_offset 16
	.cfi_offset 6, -16
	movq	%rsp, %rbp
	.cfi_def_cfa_register 6
	movq	%rdi, -8(%rbp)
	nop
	popq	%rbp
	.cfi_def_cfa 7, 8
	ret
	.cfi_endproc
.LFE4907:
	.size	_ZN3bbt6cxxlua6detail8LuaStack8PushManyEv, .-_ZN3bbt6cxxlua6detail8LuaStack8PushManyEv
	.align 2
	.globl	_ZN3bbt6cxxlua6detail8LuaStack11NewLuaTableEv
	.type	_ZN3bbt6cxxlua6detail8LuaStack11NewLuaTableEv, @function
_ZN3bbt6cxxlua6detail8LuaStack11NewLuaTableEv:
.LFB4911:
	.cfi_startproc
	endbr64
	pushq	%rbp
	.cfi_def_cfa_offset 16
	.cfi_offset 6, -16
	movq	%rsp, %rbp
	.cfi_def_cfa_register 6
	subq	$16, %rsp
	movq	%rdi, -8(%rbp)
	movq	-8(%rbp), %rax
	movq	%rax, %rdi
	call	_ZN3bbt6cxxlua6detail8LuaStack7ContextEv
	movl	$0, %edx
	movl	$0, %esi
	movq	%rax, %rdi
	call	lua_createtable@PLT
	nop
	leave
	.cfi_def_cfa 7, 8
	ret
	.cfi_endproc
.LFE4911:
	.size	_ZN3bbt6cxxlua6detail8LuaStack11NewLuaTableEv, .-_ZN3bbt6cxxlua6detail8LuaStack11NewLuaTableEv
	.align 2
	.globl	_ZN3bbt6cxxlua6detail8LuaStack12NewMetatableERKNSt7__cxx1112basic_stringIcSt11char_traitsIcESaIcEEE
	.type	_ZN3bbt6cxxlua6detail8LuaStack12NewMetatableERKNSt7__cxx1112basic_stringIcSt11char_traitsIcESaIcEEE, @function
_ZN3bbt6cxxlua6detail8LuaStack12NewMetatableERKNSt7__cxx1112basic_stringIcSt11char_traitsIcESaIcEEE:
.LFB4912:
	.cfi_startproc
	endbr64
	pushq	%rbp
	.cfi_def_cfa_offset 16
	.cfi_offset 6, -16
	movq	%rsp, %rbp
	.cfi_def_cfa_register 6
	pushq	%rbx
	subq	$24, %rsp
	.cfi_offset 3, -24
	movq	%rdi, -24(%rbp)
	movq	%rsi, -32(%rbp)
	movq	-32(%rbp), %rax
	movq	%rax, %rdi
	call	_ZNKSt7__cxx1112basic_stringIcSt11char_traitsIcESaIcEE5c_strEv@PLT
	movq	%rax, %rbx
	movq	-24(%rbp), %rax
	movq	%rax, %rdi
	call	_ZN3bbt6cxxlua6detail8LuaStack7ContextEv
	movq	%rbx, %rsi
	movq	%rax, %rdi
	call	luaL_newmetatable@PLT
	movq	-8(%rbp), %rbx
	leave
	.cfi_def_cfa 7, 8
	ret
	.cfi_endproc
.LFE4912:
	.size	_ZN3bbt6cxxlua6detail8LuaStack12NewMetatableERKNSt7__cxx1112basic_stringIcSt11char_traitsIcESaIcEEE, .-_ZN3bbt6cxxlua6detail8LuaStack12NewMetatableERKNSt7__cxx1112basic_stringIcSt11char_traitsIcESaIcEEE
	.align 2
	.globl	_ZN3bbt6cxxlua6detail8LuaStack12SetMetatableEi
	.type	_ZN3bbt6cxxlua6detail8LuaStack12SetMetatableEi, @function
_ZN3bbt6cxxlua6detail8LuaStack12SetMetatableEi:
.LFB4913:
	.cfi_startproc
	endbr64
	pushq	%rbp
	.cfi_def_cfa_offset 16
	.cfi_offset 6, -16
	movq	%rsp, %rbp
	.cfi_def_cfa_register 6
	subq	$16, %rsp
	movq	%rdi, -8(%rbp)
	movl	%esi, -12(%rbp)
	movq	-8(%rbp), %rax
	movq	%rax, %rdi
	call	_ZN3bbt6cxxlua6detail8LuaStack7ContextEv
	movq	%rax, %rdx
	movl	-12(%rbp), %eax
	movl	%eax, %esi
	movq	%rdx, %rdi
	call	lua_setmetatable@PLT
	leave
	.cfi_def_cfa 7, 8
	ret
	.cfi_endproc
.LFE4913:
	.size	_ZN3bbt6cxxlua6detail8LuaStack12SetMetatableEi, .-_ZN3bbt6cxxlua6detail8LuaStack12SetMetatableEi
	.align 2
	.globl	_ZN3bbt6cxxlua6detail8LuaStack8Copy2TopERKNS1_6LuaRefE
	.type	_ZN3bbt6cxxlua6detail8LuaStack8Copy2TopERKNS1_6LuaRefE, @function
_ZN3bbt6cxxlua6detail8LuaStack8Copy2TopERKNS1_6LuaRefE:
.LFB4914:
	.cfi_startproc
	.cfi_personality 0x9b,DW.ref.__gxx_personality_v0
	.cfi_lsda 0x1b,.LLSDA4914
	endbr64
	pushq	%rbp
	.cfi_def_cfa_offset 16
	.cfi_offset 6, -16
	movq	%rsp, %rbp
	.cfi_def_cfa_register 6
	pushq	%rbx
	subq	$120, %rsp
	.cfi_offset 3, -24
	movq	%rdi, -104(%rbp)
	movq	%rsi, -112(%rbp)
	movq	%rdx, -120(%rbp)
	movq	%fs:40, %rax
	movq	%rax, -24(%rbp)
	xorl	%eax, %eax
	movq	-120(%rbp), %rax
	movq	%rax, %rdi
	call	_ZNK3bbt6cxxlua6detail6LuaRef8GetIndexEv
	movl	%eax, -84(%rbp)
	movl	-84(%rbp), %eax
	movslq	%eax, %rbx
	movq	-112(%rbp), %rax
	movq	%rax, %rdi
.LEHB36:
	call	_ZN3bbt6cxxlua6detail8LuaStack4SizeEv
	cmpq	%rax, %rbx
	seta	%al
	testb	%al, %al
	je	.L222
	leaq	-80(%rbp), %rax
	movl	$14, %edx
	leaq	.LC1(%rip), %rcx
	movq	%rcx, %rsi
	movq	%rax, %rdi
	call	_ZN3bbt6cxxlua6detail6LuaErrC1EPKcNS0_7ERRCODEE
.LEHE36:
	leaq	-80(%rbp), %rdx
	movq	-104(%rbp), %rax
	movq	%rdx, %rsi
	movq	%rax, %rdi
.LEHB37:
	call	_ZNSt8optionalIN3bbt6cxxlua6detail6LuaErrEEC1IS3_Lb1EEEOT_
.LEHE37:
	nop
	leaq	-80(%rbp), %rax
	movq	%rax, %rdi
	call	_ZN3bbt6cxxlua6detail6LuaErrD1Ev
	jmp	.L221
.L222:
	movq	-112(%rbp), %rax
	movq	%rax, %rdi
	call	_ZN3bbt6cxxlua6detail8LuaStack7ContextEv
	movq	%rax, %rdx
	movl	-84(%rbp), %eax
	movl	%eax, %esi
	movq	%rdx, %rdi
.LEHB38:
	call	lua_pushvalue@PLT
	movq	-104(%rbp), %rax
	movq	%rax, %rdi
	call	_ZNSt8optionalIN3bbt6cxxlua6detail6LuaErrEEC1ESt9nullopt_t
	jmp	.L221
.L226:
	endbr64
	movq	%rax, %rbx
	leaq	-80(%rbp), %rax
	movq	%rax, %rdi
	call	_ZN3bbt6cxxlua6detail6LuaErrD1Ev
	movq	%rbx, %rax
	movq	%rax, %rdi
	call	_Unwind_Resume@PLT
.LEHE38:
.L221:
	movq	-24(%rbp), %rax
	subq	%fs:40, %rax
	je	.L225
	call	__stack_chk_fail@PLT
.L225:
	movq	-104(%rbp), %rax
	movq	-8(%rbp), %rbx
	leave
	.cfi_def_cfa 7, 8
	ret
	.cfi_endproc
.LFE4914:
	.section	.gcc_except_table
.LLSDA4914:
	.byte	0xff
	.byte	0xff
	.byte	0x1
	.uleb128 .LLSDACSE4914-.LLSDACSB4914
.LLSDACSB4914:
	.uleb128 .LEHB36-.LFB4914
	.uleb128 .LEHE36-.LEHB36
	.uleb128 0
	.uleb128 0
	.uleb128 .LEHB37-.LFB4914
	.uleb128 .LEHE37-.LEHB37
	.uleb128 .L226-.LFB4914
	.uleb128 0
	.uleb128 .LEHB38-.LFB4914
	.uleb128 .LEHE38-.LEHB38
	.uleb128 0
	.uleb128 0
.LLSDACSE4914:
	.text
	.size	_ZN3bbt6cxxlua6detail8LuaStack8Copy2TopERKNS1_6LuaRefE, .-_ZN3bbt6cxxlua6detail8LuaStack8Copy2TopERKNS1_6LuaRefE
	.align 2
	.globl	_ZN3bbt6cxxlua6detail8LuaStack9IsSafeRefERKNS1_6LuaRefE
	.type	_ZN3bbt6cxxlua6detail8LuaStack9IsSafeRefERKNS1_6LuaRefE, @function
_ZN3bbt6cxxlua6detail8LuaStack9IsSafeRefERKNS1_6LuaRefE:
.LFB4915:
	.cfi_startproc
	endbr64
	pushq	%rbp
	.cfi_def_cfa_offset 16
	.cfi_offset 6, -16
	movq	%rsp, %rbp
	.cfi_def_cfa_register 6
	subq	$32, %rsp
	movq	%rdi, -24(%rbp)
	movq	%rsi, -32(%rbp)
	movq	-24(%rbp), %rax
	movq	%rax, %rdi
	call	_ZN3bbt6cxxlua6detail8LuaStack4SizeEv
	movq	%rax, -8(%rbp)
	movq	-32(%rbp), %rax
	movq	%rax, %rdi
	call	_ZNK3bbt6cxxlua6detail6LuaRef8GetIndexEv
	cltq
	cmpq	%rax, -8(%rbp)
	setb	%al
	testb	%al, %al
	je	.L228
	movl	$0, %eax
	jmp	.L229
.L228:
	movl	$1, %eax
.L229:
	leave
	.cfi_def_cfa 7, 8
	ret
	.cfi_endproc
.LFE4915:
	.size	_ZN3bbt6cxxlua6detail8LuaStack9IsSafeRefERKNS1_6LuaRefE, .-_ZN3bbt6cxxlua6detail8LuaStack9IsSafeRefERKNS1_6LuaRefE
	.align 2
	.globl	_ZN3bbt6cxxlua6detail8LuaStack4SizeEv
	.type	_ZN3bbt6cxxlua6detail8LuaStack4SizeEv, @function
_ZN3bbt6cxxlua6detail8LuaStack4SizeEv:
.LFB4916:
	.cfi_startproc
	endbr64
	pushq	%rbp
	.cfi_def_cfa_offset 16
	.cfi_offset 6, -16
	movq	%rsp, %rbp
	.cfi_def_cfa_register 6
	subq	$16, %rsp
	movq	%rdi, -8(%rbp)
	movq	-8(%rbp), %rax
	movq	%rax, %rdi
	call	_ZN3bbt6cxxlua6detail8LuaStack7ContextEv
	movq	%rax, %rdi
	call	lua_gettop@PLT
	cltq
	leave
	.cfi_def_cfa 7, 8
	ret
	.cfi_endproc
.LFE4916:
	.size	_ZN3bbt6cxxlua6detail8LuaStack4SizeEv, .-_ZN3bbt6cxxlua6detail8LuaStack4SizeEv
	.align 2
	.globl	_ZN3bbt6cxxlua6detail8LuaStack5EmptyEv
	.type	_ZN3bbt6cxxlua6detail8LuaStack5EmptyEv, @function
_ZN3bbt6cxxlua6detail8LuaStack5EmptyEv:
.LFB4917:
	.cfi_startproc
	endbr64
	pushq	%rbp
	.cfi_def_cfa_offset 16
	.cfi_offset 6, -16
	movq	%rsp, %rbp
	.cfi_def_cfa_register 6
	subq	$16, %rsp
	movq	%rdi, -8(%rbp)
	movq	-8(%rbp), %rax
	movq	%rax, %rdi
	call	_ZN3bbt6cxxlua6detail8LuaStack4SizeEv
	testq	%rax, %rax
	sete	%al
	leave
	.cfi_def_cfa 7, 8
	ret
	.cfi_endproc
.LFE4917:
	.size	_ZN3bbt6cxxlua6detail8LuaStack5EmptyEv, .-_ZN3bbt6cxxlua6detail8LuaStack5EmptyEv
	.align 2
	.globl	_ZN3bbt6cxxlua6detail8LuaStack6GetTopEv
	.type	_ZN3bbt6cxxlua6detail8LuaStack6GetTopEv, @function
_ZN3bbt6cxxlua6detail8LuaStack6GetTopEv:
.LFB4918:
	.cfi_startproc
	endbr64
	pushq	%rbp
	.cfi_def_cfa_offset 16
	.cfi_offset 6, -16
	movq	%rsp, %rbp
	.cfi_def_cfa_register 6
	pushq	%rbx
	subq	$24, %rsp
	.cfi_offset 3, -24
	movq	%rdi, -24(%rbp)
	movq	%rsi, -32(%rbp)
	movq	-32(%rbp), %rax
	leaq	_ZN3bbt6cxxlua6detailL13g_lua_top_refE(%rip), %rdx
	movq	%rdx, %rsi
	movq	%rax, %rdi
	call	_ZN3bbt6cxxlua6detail8LuaStack7GetTypeERKNS1_6LuaRefE
	movl	%eax, %ebx
	movq	-32(%rbp), %rax
	movq	%rax, %rdi
	call	_ZN3bbt6cxxlua6detail8LuaStack7ContextEv
	movq	%rax, %rdi
	call	lua_gettop@PLT
	movl	%eax, %ecx
	movq	-24(%rbp), %rax
	movl	%ebx, %edx
	movl	%ecx, %esi
	movq	%rax, %rdi
	call	_ZN3bbt6cxxlua6detail6LuaRefC1EiNS1_7LUATYPEE
	movq	-24(%rbp), %rax
	movq	-8(%rbp), %rbx
	leave
	.cfi_def_cfa 7, 8
	ret
	.cfi_endproc
.LFE4918:
	.size	_ZN3bbt6cxxlua6detail8LuaStack6GetTopEv, .-_ZN3bbt6cxxlua6detail8LuaStack6GetTopEv
	.align 2
	.globl	_ZN3bbt6cxxlua6detail8LuaStack7GetTypeERKNS1_6LuaRefE
	.type	_ZN3bbt6cxxlua6detail8LuaStack7GetTypeERKNS1_6LuaRefE, @function
_ZN3bbt6cxxlua6detail8LuaStack7GetTypeERKNS1_6LuaRefE:
.LFB4919:
	.cfi_startproc
	endbr64
	pushq	%rbp
	.cfi_def_cfa_offset 16
	.cfi_offset 6, -16
	movq	%rsp, %rbp
	.cfi_def_cfa_register 6
	pushq	%rbx
	subq	$24, %rsp
	.cfi_offset 3, -24
	movq	%rdi, -24(%rbp)
	movq	%rsi, -32(%rbp)
	movq	-32(%rbp), %rax
	movq	%rax, %rdi
	call	_ZNK3bbt6cxxlua6detail6LuaRef8GetIndexEv
	movl	%eax, %ebx
	movq	-24(%rbp), %rax
	movq	%rax, %rdi
	call	_ZN3bbt6cxxlua6detail8LuaStack7ContextEv
	movl	%ebx, %esi
	movq	%rax, %rdi
	call	lua_type@PLT
	movq	-8(%rbp), %rbx
	leave
	.cfi_def_cfa 7, 8
	ret
	.cfi_endproc
.LFE4919:
	.size	_ZN3bbt6cxxlua6detail8LuaStack7GetTypeERKNS1_6LuaRefE, .-_ZN3bbt6cxxlua6detail8LuaStack7GetTypeERKNS1_6LuaRefE
	.align 2
	.globl	_ZN3bbt6cxxlua6detail8LuaStack3PopEi
	.type	_ZN3bbt6cxxlua6detail8LuaStack3PopEi, @function
_ZN3bbt6cxxlua6detail8LuaStack3PopEi:
.LFB4920:
	.cfi_startproc
	endbr64
	pushq	%rbp
	.cfi_def_cfa_offset 16
	.cfi_offset 6, -16
	movq	%rsp, %rbp
	.cfi_def_cfa_register 6
	pushq	%rbx
	subq	$24, %rsp
	.cfi_offset 3, -24
	movq	%rdi, -24(%rbp)
	movl	%esi, -28(%rbp)
	movl	-28(%rbp), %eax
	notl	%eax
	movl	%eax, %ebx
	movq	-24(%rbp), %rax
	movq	%rax, %rdi
	call	_ZN3bbt6cxxlua6detail8LuaStack7ContextEv
	movl	%ebx, %esi
	movq	%rax, %rdi
	call	lua_settop@PLT
	nop
	movq	-8(%rbp), %rbx
	leave
	.cfi_def_cfa 7, 8
	ret
	.cfi_endproc
.LFE4920:
	.size	_ZN3bbt6cxxlua6detail8LuaStack3PopEi, .-_ZN3bbt6cxxlua6detail8LuaStack3PopEi
	.align 2
	.globl	_ZN3bbt6cxxlua6detail8LuaStack17__CallLuaFunctionEii
	.type	_ZN3bbt6cxxlua6detail8LuaStack17__CallLuaFunctionEii, @function
_ZN3bbt6cxxlua6detail8LuaStack17__CallLuaFunctionEii:
.LFB4923:
	.cfi_startproc
	.cfi_personality 0x9b,DW.ref.__gxx_personality_v0
	.cfi_lsda 0x1b,.LLSDA4923
	endbr64
	pushq	%rbp
	.cfi_def_cfa_offset 16
	.cfi_offset 6, -16
	movq	%rsp, %rbp
	.cfi_def_cfa_register 6
	pushq	%rbx
	subq	$152, %rsp
	.cfi_offset 3, -24
	movq	%rdi, -136(%rbp)
	movq	%rsi, -144(%rbp)
	movl	%edx, -148(%rbp)
	movl	%ecx, -152(%rbp)
	movq	%fs:40, %rax
	movq	%rax, -24(%rbp)
	xorl	%eax, %eax
	movq	-144(%rbp), %rax
	movq	%rax, %rdi
	call	_ZN3bbt6cxxlua6detail8LuaStack7ContextEv
	movq	%rax, %rdi
	movl	-152(%rbp), %edx
	movl	-148(%rbp), %eax
	movl	$0, %r9d
	movl	$0, %r8d
	movl	$0, %ecx
	movl	%eax, %esi
.LEHB39:
	call	lua_pcallk@PLT
	movl	%eax, -116(%rbp)
	cmpl	$0, -116(%rbp)
	je	.L253
	cmpl	$2, -116(%rbp)
	jne	.L252
	movq	-144(%rbp), %rax
	movq	%rax, %rdi
	call	_ZN3bbt6cxxlua6detail8LuaStack7ContextEv
	movl	$0, %edx
	movl	$-1, %esi
	movq	%rax, %rdi
	call	lua_tolstring@PLT
	movq	%rax, %rcx
	leaq	-80(%rbp), %rax
	movl	$6, %edx
	movq	%rcx, %rsi
	movq	%rax, %rdi
	call	_ZN3bbt6cxxlua6detail6LuaErrC1EPKcNS0_7ERRCODEE
.LEHE39:
	leaq	-80(%rbp), %rdx
	movq	-136(%rbp), %rax
	movq	%rdx, %rsi
	movq	%rax, %rdi
.LEHB40:
	call	_ZNSt8optionalIN3bbt6cxxlua6detail6LuaErrEEC1IS3_Lb1EEEOT_
.LEHE40:
	nop
	leaq	-80(%rbp), %rax
	movq	%rax, %rdi
	call	_ZN3bbt6cxxlua6detail6LuaErrD1Ev
	jmp	.L239
.L252:
	leaq	-112(%rbp), %rax
	movl	-116(%rbp), %edx
	movl	%edx, %esi
	movq	%rax, %rdi
.LEHB41:
	call	_ZNSt7__cxx119to_stringEi
.LEHE41:
	leaq	-112(%rbp), %rcx
	leaq	-80(%rbp), %rax
	movl	$0, %edx
	movq	%rcx, %rsi
	movq	%rax, %rdi
.LEHB42:
	call	_ZN3bbt6cxxlua6detail6LuaErrC1ERKNSt7__cxx1112basic_stringIcSt11char_traitsIcESaIcEEENS0_7ERRCODEE
.LEHE42:
	leaq	-80(%rbp), %rdx
	movq	-136(%rbp), %rax
	movq	%rdx, %rsi
	movq	%rax, %rdi
.LEHB43:
	call	_ZNSt8optionalIN3bbt6cxxlua6detail6LuaErrEEC1IS3_Lb1EEEOT_
.LEHE43:
	nop
	leaq	-80(%rbp), %rax
	movq	%rax, %rdi
	call	_ZN3bbt6cxxlua6detail6LuaErrD1Ev
	leaq	-112(%rbp), %rax
	movq	%rax, %rdi
	call	_ZNSt7__cxx1112basic_stringIcSt11char_traitsIcESaIcEED1Ev@PLT
	jmp	.L239
.L253:
	nop
	movq	-136(%rbp), %rax
	movq	%rax, %rdi
	call	_ZNSt8optionalIN3bbt6cxxlua6detail6LuaErrEEC1ESt9nullopt_t
	jmp	.L239
.L249:
	endbr64
	movq	%rax, %rbx
	leaq	-80(%rbp), %rax
	movq	%rax, %rdi
	call	_ZN3bbt6cxxlua6detail6LuaErrD1Ev
	movq	%rbx, %rax
	movq	%rax, %rdi
.LEHB44:
	call	_Unwind_Resume@PLT
.L251:
	endbr64
	movq	%rax, %rbx
	leaq	-80(%rbp), %rax
	movq	%rax, %rdi
	call	_ZN3bbt6cxxlua6detail6LuaErrD1Ev
	jmp	.L247
.L250:
	endbr64
	movq	%rax, %rbx
.L247:
	leaq	-112(%rbp), %rax
	movq	%rax, %rdi
	call	_ZNSt7__cxx1112basic_stringIcSt11char_traitsIcESaIcEED1Ev@PLT
	movq	%rbx, %rax
	movq	%rax, %rdi
	call	_Unwind_Resume@PLT
.LEHE44:
.L239:
	movq	-24(%rbp), %rax
	subq	%fs:40, %rax
	je	.L248
	call	__stack_chk_fail@PLT
.L248:
	movq	-136(%rbp), %rax
	movq	-8(%rbp), %rbx
	leave
	.cfi_def_cfa 7, 8
	ret
	.cfi_endproc
.LFE4923:
	.section	.gcc_except_table
.LLSDA4923:
	.byte	0xff
	.byte	0xff
	.byte	0x1
	.uleb128 .LLSDACSE4923-.LLSDACSB4923
.LLSDACSB4923:
	.uleb128 .LEHB39-.LFB4923
	.uleb128 .LEHE39-.LEHB39
	.uleb128 0
	.uleb128 0
	.uleb128 .LEHB40-.LFB4923
	.uleb128 .LEHE40-.LEHB40
	.uleb128 .L249-.LFB4923
	.uleb128 0
	.uleb128 .LEHB41-.LFB4923
	.uleb128 .LEHE41-.LEHB41
	.uleb128 0
	.uleb128 0
	.uleb128 .LEHB42-.LFB4923
	.uleb128 .LEHE42-.LEHB42
	.uleb128 .L250-.LFB4923
	.uleb128 0
	.uleb128 .LEHB43-.LFB4923
	.uleb128 .LEHE43-.LEHB43
	.uleb128 .L251-.LFB4923
	.uleb128 0
	.uleb128 .LEHB44-.LFB4923
	.uleb128 .LEHE44-.LEHB44
	.uleb128 0
	.uleb128 0
.LLSDACSE4923:
	.text
	.size	_ZN3bbt6cxxlua6detail8LuaStack17__CallLuaFunctionEii, .-_ZN3bbt6cxxlua6detail8LuaStack17__CallLuaFunctionEii
	.align 2
	.globl	_ZN3bbt6cxxlua6detail8LuaStack10LoadLuaLibEv
	.type	_ZN3bbt6cxxlua6detail8LuaStack10LoadLuaLibEv, @function
_ZN3bbt6cxxlua6detail8LuaStack10LoadLuaLibEv:
.LFB4924:
	.cfi_startproc
	endbr64
	pushq	%rbp
	.cfi_def_cfa_offset 16
	.cfi_offset 6, -16
	movq	%rsp, %rbp
	.cfi_def_cfa_register 6
	subq	$16, %rsp
	movq	%rdi, -8(%rbp)
	movq	%rsi, -16(%rbp)
	movq	-16(%rbp), %rax
	movq	%rax, %rdi
	call	_ZN3bbt6cxxlua6detail8LuaStack7ContextEv
	movq	%rax, %rdi
	call	luaL_openlibs@PLT
	movq	-8(%rbp), %rax
	movq	%rax, %rdi
	call	_ZNSt8optionalIN3bbt6cxxlua6detail6LuaErrEEC1ESt9nullopt_t
	movq	-8(%rbp), %rax
	leave
	.cfi_def_cfa 7, 8
	ret
	.cfi_endproc
.LFE4924:
	.size	_ZN3bbt6cxxlua6detail8LuaStack10LoadLuaLibEv, .-_ZN3bbt6cxxlua6detail8LuaStack10LoadLuaLibEv
	.align 2
	.globl	_ZN3bbt6cxxlua6detail5LuaVMC2Ev
	.type	_ZN3bbt6cxxlua6detail5LuaVMC2Ev, @function
_ZN3bbt6cxxlua6detail5LuaVMC2Ev:
.LFB4935:
	.cfi_startproc
	endbr64
	pushq	%rbp
	.cfi_def_cfa_offset 16
	.cfi_offset 6, -16
	movq	%rsp, %rbp
	.cfi_def_cfa_register 6
	subq	$32, %rsp
	movq	%rdi, -24(%rbp)
	movq	%fs:40, %rax
	movq	%rax, -8(%rbp)
	xorl	%eax, %eax
	call	luaL_newstate@PLT
	movq	%rax, -16(%rbp)
	movq	-24(%rbp), %rax
	leaq	-16(%rbp), %rdx
	movq	%rdx, %rsi
	movq	%rax, %rdi
	call	_ZSt11make_uniqueIN3bbt6cxxlua6detail8LuaStackEJP9lua_StateEENSt9_MakeUniqIT_E15__single_objectEDpOT0_
	nop
	movq	-8(%rbp), %rax
	subq	%fs:40, %rax
	je	.L257
	call	__stack_chk_fail@PLT
.L257:
	leave
	.cfi_def_cfa 7, 8
	ret
	.cfi_endproc
.LFE4935:
	.size	_ZN3bbt6cxxlua6detail5LuaVMC2Ev, .-_ZN3bbt6cxxlua6detail5LuaVMC2Ev
	.globl	_ZN3bbt6cxxlua6detail5LuaVMC1Ev
	.set	_ZN3bbt6cxxlua6detail5LuaVMC1Ev,_ZN3bbt6cxxlua6detail5LuaVMC2Ev
	.align 2
	.globl	_ZN3bbt6cxxlua6detail5LuaVMD2Ev
	.type	_ZN3bbt6cxxlua6detail5LuaVMD2Ev, @function
_ZN3bbt6cxxlua6detail5LuaVMD2Ev:
.LFB4938:
	.cfi_startproc
	endbr64
	pushq	%rbp
	.cfi_def_cfa_offset 16
	.cfi_offset 6, -16
	movq	%rsp, %rbp
	.cfi_def_cfa_register 6
	subq	$16, %rsp
	movq	%rdi, -8(%rbp)
	movq	-8(%rbp), %rax
	movq	%rax, %rdi
	call	_ZNSt10unique_ptrIN3bbt6cxxlua6detail8LuaStackESt14default_deleteIS3_EED1Ev
	nop
	leave
	.cfi_def_cfa 7, 8
	ret
	.cfi_endproc
.LFE4938:
	.size	_ZN3bbt6cxxlua6detail5LuaVMD2Ev, .-_ZN3bbt6cxxlua6detail5LuaVMD2Ev
	.globl	_ZN3bbt6cxxlua6detail5LuaVMD1Ev
	.set	_ZN3bbt6cxxlua6detail5LuaVMD1Ev,_ZN3bbt6cxxlua6detail5LuaVMD2Ev
	.align 2
	.globl	_ZN3bbt6cxxlua6detail5LuaVM8DoScriptERKNSt7__cxx1112basic_stringIcSt11char_traitsIcESaIcEEE
	.type	_ZN3bbt6cxxlua6detail5LuaVM8DoScriptERKNSt7__cxx1112basic_stringIcSt11char_traitsIcESaIcEEE, @function
_ZN3bbt6cxxlua6detail5LuaVM8DoScriptERKNSt7__cxx1112basic_stringIcSt11char_traitsIcESaIcEEE:
.LFB4940:
	.cfi_startproc
	endbr64
	pushq	%rbp
	.cfi_def_cfa_offset 16
	.cfi_offset 6, -16
	movq	%rsp, %rbp
	.cfi_def_cfa_register 6
	subq	$48, %rsp
	movq	%rdi, -24(%rbp)
	movq	%rsi, -32(%rbp)
	movq	%rdx, -40(%rbp)
	movq	%fs:40, %rax
	movq	%rax, -8(%rbp)
	xorl	%eax, %eax
	movq	-32(%rbp), %rax
	movq	%rax, %rdi
	call	_ZNKSt10unique_ptrIN3bbt6cxxlua6detail8LuaStackESt14default_deleteIS3_EEptEv
	movq	%rax, %rcx
	movq	-24(%rbp), %rax
	movq	-40(%rbp), %rdx
	movq	%rcx, %rsi
	movq	%rax, %rdi
	call	_ZN3bbt6cxxlua6detail8LuaStack8DoScriptERKNSt7__cxx1112basic_stringIcSt11char_traitsIcESaIcEEE
	movq	-8(%rbp), %rax
	subq	%fs:40, %rax
	je	.L261
	call	__stack_chk_fail@PLT
.L261:
	movq	-24(%rbp), %rax
	leave
	.cfi_def_cfa 7, 8
	ret
	.cfi_endproc
.LFE4940:
	.size	_ZN3bbt6cxxlua6detail5LuaVM8DoScriptERKNSt7__cxx1112basic_stringIcSt11char_traitsIcESaIcEEE, .-_ZN3bbt6cxxlua6detail5LuaVM8DoScriptERKNSt7__cxx1112basic_stringIcSt11char_traitsIcESaIcEEE
	.align 2
	.globl	_ZN3bbt6cxxlua6detail5LuaVM8LoadFileERKNSt7__cxx1112basic_stringIcSt11char_traitsIcESaIcEEE
	.type	_ZN3bbt6cxxlua6detail5LuaVM8LoadFileERKNSt7__cxx1112basic_stringIcSt11char_traitsIcESaIcEEE, @function
_ZN3bbt6cxxlua6detail5LuaVM8LoadFileERKNSt7__cxx1112basic_stringIcSt11char_traitsIcESaIcEEE:
.LFB4941:
	.cfi_startproc
	endbr64
	pushq	%rbp
	.cfi_def_cfa_offset 16
	.cfi_offset 6, -16
	movq	%rsp, %rbp
	.cfi_def_cfa_register 6
	subq	$48, %rsp
	movq	%rdi, -24(%rbp)
	movq	%rsi, -32(%rbp)
	movq	%rdx, -40(%rbp)
	movq	%fs:40, %rax
	movq	%rax, -8(%rbp)
	xorl	%eax, %eax
	movq	-32(%rbp), %rax
	movq	%rax, %rdi
	call	_ZNKSt10unique_ptrIN3bbt6cxxlua6detail8LuaStackESt14default_deleteIS3_EEptEv
	movq	%rax, %rcx
	movq	-24(%rbp), %rax
	movq	-40(%rbp), %rdx
	movq	%rcx, %rsi
	movq	%rax, %rdi
	call	_ZN3bbt6cxxlua6detail8LuaStack8LoadFileERKNSt7__cxx1112basic_stringIcSt11char_traitsIcESaIcEEE
	movq	-8(%rbp), %rax
	subq	%fs:40, %rax
	je	.L264
	call	__stack_chk_fail@PLT
.L264:
	movq	-24(%rbp), %rax
	leave
	.cfi_def_cfa 7, 8
	ret
	.cfi_endproc
.LFE4941:
	.size	_ZN3bbt6cxxlua6detail5LuaVM8LoadFileERKNSt7__cxx1112basic_stringIcSt11char_traitsIcESaIcEEE, .-_ZN3bbt6cxxlua6detail5LuaVM8LoadFileERKNSt7__cxx1112basic_stringIcSt11char_traitsIcESaIcEEE
	.align 2
	.globl	_ZN3bbt6cxxlua6detail5LuaVM9LoadFilesERKSt6vectorINSt7__cxx1112basic_stringIcSt11char_traitsIcESaIcEEESaIS9_EE
	.type	_ZN3bbt6cxxlua6detail5LuaVM9LoadFilesERKSt6vectorINSt7__cxx1112basic_stringIcSt11char_traitsIcESaIcEEESaIS9_EE, @function
_ZN3bbt6cxxlua6detail5LuaVM9LoadFilesERKSt6vectorINSt7__cxx1112basic_stringIcSt11char_traitsIcESaIcEEESaIS9_EE:
.LFB4942:
	.cfi_startproc
	.cfi_personality 0x9b,DW.ref.__gxx_personality_v0
	.cfi_lsda 0x1b,.LLSDA4942
	endbr64
	pushq	%rbp
	.cfi_def_cfa_offset 16
	.cfi_offset 6, -16
	movq	%rsp, %rbp
	.cfi_def_cfa_register 6
	pushq	%rbx
	subq	$136, %rsp
	.cfi_offset 3, -24
	movq	%rdi, -120(%rbp)
	movq	%rsi, -128(%rbp)
	movq	%rdx, -136(%rbp)
	movq	%fs:40, %rax
	movq	%rax, -24(%rbp)
	xorl	%eax, %eax
	movq	-136(%rbp), %rax
	movq	%rax, -96(%rbp)
	movq	-96(%rbp), %rax
	movq	%rax, %rdi
	call	_ZNKSt6vectorINSt7__cxx1112basic_stringIcSt11char_traitsIcESaIcEEESaIS5_EE5beginEv
	movq	%rax, -112(%rbp)
	movq	-96(%rbp), %rax
	movq	%rax, %rdi
	call	_ZNKSt6vectorINSt7__cxx1112basic_stringIcSt11char_traitsIcESaIcEEESaIS5_EE3endEv
	movq	%rax, -104(%rbp)
	jmp	.L266
.L271:
	leaq	-112(%rbp), %rax
	movq	%rax, %rdi
	call	_ZNK9__gnu_cxx17__normal_iteratorIPKNSt7__cxx1112basic_stringIcSt11char_traitsIcESaIcEEESt6vectorIS6_SaIS6_EEEdeEv
	movq	%rax, -88(%rbp)
	leaq	-80(%rbp), %rax
	movq	-88(%rbp), %rdx
	movq	-128(%rbp), %rcx
	movq	%rcx, %rsi
	movq	%rax, %rdi
.LEHB45:
	call	_ZN3bbt6cxxlua6detail5LuaVM8LoadFileERKNSt7__cxx1112basic_stringIcSt11char_traitsIcESaIcEEE
.LEHE45:
	leaq	-80(%rbp), %rax
	movq	%rax, %rdi
	call	_ZNKSt8optionalIN3bbt6cxxlua6detail6LuaErrEEcvbEv
	xorl	$1, %eax
	testb	%al, %al
	je	.L267
	leaq	-80(%rbp), %rdx
	movq	-120(%rbp), %rax
	movq	%rdx, %rsi
	movq	%rax, %rdi
.LEHB46:
	call	_ZNSt8optionalIN3bbt6cxxlua6detail6LuaErrEEC1EOS4_
.LEHE46:
	movl	$0, %ebx
	jmp	.L268
.L267:
	movl	$1, %ebx
.L268:
	leaq	-80(%rbp), %rax
	movq	%rax, %rdi
	call	_ZNSt8optionalIN3bbt6cxxlua6detail6LuaErrEED1Ev
	cmpl	$1, %ebx
	jne	.L265
	leaq	-112(%rbp), %rax
	movq	%rax, %rdi
	call	_ZN9__gnu_cxx17__normal_iteratorIPKNSt7__cxx1112basic_stringIcSt11char_traitsIcESaIcEEESt6vectorIS6_SaIS6_EEEppEv
.L266:
	leaq	-104(%rbp), %rdx
	leaq	-112(%rbp), %rax
	movq	%rdx, %rsi
	movq	%rax, %rdi
	call	_ZN9__gnu_cxxneIPKNSt7__cxx1112basic_stringIcSt11char_traitsIcESaIcEEESt6vectorIS6_SaIS6_EEEEbRKNS_17__normal_iteratorIT_T0_EESH_
	testb	%al, %al
	jne	.L271
	movq	-120(%rbp), %rax
	movq	%rax, %rdi
	call	_ZNSt8optionalIN3bbt6cxxlua6detail6LuaErrEEC1ESt9nullopt_t
	jmp	.L265
.L274:
	endbr64
	movq	%rax, %rbx
	leaq	-80(%rbp), %rax
	movq	%rax, %rdi
	call	_ZNSt8optionalIN3bbt6cxxlua6detail6LuaErrEED1Ev
	movq	%rbx, %rax
	movq	%rax, %rdi
.LEHB47:
	call	_Unwind_Resume@PLT
.LEHE47:
.L265:
	movq	-24(%rbp), %rax
	subq	%fs:40, %rax
	je	.L273
	call	__stack_chk_fail@PLT
.L273:
	movq	-120(%rbp), %rax
	movq	-8(%rbp), %rbx
	leave
	.cfi_def_cfa 7, 8
	ret
	.cfi_endproc
.LFE4942:
	.section	.gcc_except_table
.LLSDA4942:
	.byte	0xff
	.byte	0xff
	.byte	0x1
	.uleb128 .LLSDACSE4942-.LLSDACSB4942
.LLSDACSB4942:
	.uleb128 .LEHB45-.LFB4942
	.uleb128 .LEHE45-.LEHB45
	.uleb128 0
	.uleb128 0
	.uleb128 .LEHB46-.LFB4942
	.uleb128 .LEHE46-.LEHB46
	.uleb128 .L274-.LFB4942
	.uleb128 0
	.uleb128 .LEHB47-.LFB4942
	.uleb128 .LEHE47-.LEHB47
	.uleb128 0
	.uleb128 0
.LLSDACSE4942:
	.text
	.size	_ZN3bbt6cxxlua6detail5LuaVM9LoadFilesERKSt6vectorINSt7__cxx1112basic_stringIcSt11char_traitsIcESaIcEEESaIS9_EE, .-_ZN3bbt6cxxlua6detail5LuaVM9LoadFilesERKSt6vectorINSt7__cxx1112basic_stringIcSt11char_traitsIcESaIcEEESaIS9_EE
	.align 2
	.globl	_ZN3bbt6cxxlua6detail5LuaVM10LoadFolderERKNSt7__cxx1112basic_stringIcSt11char_traitsIcESaIcEEE
	.type	_ZN3bbt6cxxlua6detail5LuaVM10LoadFolderERKNSt7__cxx1112basic_stringIcSt11char_traitsIcESaIcEEE, @function
_ZN3bbt6cxxlua6detail5LuaVM10LoadFolderERKNSt7__cxx1112basic_stringIcSt11char_traitsIcESaIcEEE:
.LFB4943:
	.cfi_startproc
	endbr64
	pushq	%rbp
	.cfi_def_cfa_offset 16
	.cfi_offset 6, -16
	movq	%rsp, %rbp
	.cfi_def_cfa_register 6
	subq	$48, %rsp
	movq	%rdi, -24(%rbp)
	movq	%rsi, -32(%rbp)
	movq	%rdx, -40(%rbp)
	movq	%fs:40, %rax
	movq	%rax, -8(%rbp)
	xorl	%eax, %eax
	movq	-32(%rbp), %rax
	movq	%rax, %rdi
	call	_ZNKSt10unique_ptrIN3bbt6cxxlua6detail8LuaStackESt14default_deleteIS3_EEptEv
	movq	%rax, %rcx
	movq	-24(%rbp), %rax
	movq	-40(%rbp), %rdx
	movq	%rcx, %rsi
	movq	%rax, %rdi
	call	_ZN3bbt6cxxlua6detail8LuaStack10LoadFolderERKNSt7__cxx1112basic_stringIcSt11char_traitsIcESaIcEEE
	movq	-8(%rbp), %rax
	subq	%fs:40, %rax
	je	.L277
	call	__stack_chk_fail@PLT
.L277:
	movq	-24(%rbp), %rax
	leave
	.cfi_def_cfa 7, 8
	ret
	.cfi_endproc
.LFE4943:
	.size	_ZN3bbt6cxxlua6detail5LuaVM10LoadFolderERKNSt7__cxx1112basic_stringIcSt11char_traitsIcESaIcEEE, .-_ZN3bbt6cxxlua6detail5LuaVM10LoadFolderERKNSt7__cxx1112basic_stringIcSt11char_traitsIcESaIcEEE
	.align 2
	.globl	_ZN3bbt6cxxlua6detail5LuaVM14LoadLuaLibraryEv
	.type	_ZN3bbt6cxxlua6detail5LuaVM14LoadLuaLibraryEv, @function
_ZN3bbt6cxxlua6detail5LuaVM14LoadLuaLibraryEv:
.LFB4945:
	.cfi_startproc
	endbr64
	pushq	%rbp
	.cfi_def_cfa_offset 16
	.cfi_offset 6, -16
	movq	%rsp, %rbp
	.cfi_def_cfa_register 6
	subq	$32, %rsp
	movq	%rdi, -24(%rbp)
	movq	%rsi, -32(%rbp)
	movq	%fs:40, %rax
	movq	%rax, -8(%rbp)
	xorl	%eax, %eax
	movq	-32(%rbp), %rax
	movq	%rax, %rdi
	call	_ZNKSt10unique_ptrIN3bbt6cxxlua6detail8LuaStackESt14default_deleteIS3_EEptEv
	movq	%rax, %rdx
	movq	-24(%rbp), %rax
	movq	%rdx, %rsi
	movq	%rax, %rdi
	call	_ZN3bbt6cxxlua6detail8LuaStack10LoadLuaLibEv
	movq	-8(%rbp), %rax
	subq	%fs:40, %rax
	je	.L280
	call	__stack_chk_fail@PLT
.L280:
	movq	-24(%rbp), %rax
	leave
	.cfi_def_cfa 7, 8
	ret
	.cfi_endproc
.LFE4945:
	.size	_ZN3bbt6cxxlua6detail5LuaVM14LoadLuaLibraryEv, .-_ZN3bbt6cxxlua6detail5LuaVM14LoadLuaLibraryEv
	.section	.rodata
.LC8:
	.string	"__mode"
	.text
	.globl	_ZN3bbt6cxxlua6detail7setweakEP9lua_StatePKc
	.type	_ZN3bbt6cxxlua6detail7setweakEP9lua_StatePKc, @function
_ZN3bbt6cxxlua6detail7setweakEP9lua_StatePKc:
.LFB4950:
	.cfi_startproc
	endbr64
	pushq	%rbp
	.cfi_def_cfa_offset 16
	.cfi_offset 6, -16
	movq	%rsp, %rbp
	.cfi_def_cfa_register 6
	subq	$16, %rsp
	movq	%rdi, -8(%rbp)
	movq	%rsi, -16(%rbp)
	movq	-8(%rbp), %rax
	movl	$0, %edx
	movl	$0, %esi
	movq	%rax, %rdi
	call	lua_createtable@PLT
	movq	-8(%rbp), %rax
	movl	$-1, %esi
	movq	%rax, %rdi
	call	lua_pushvalue@PLT
	movq	-8(%rbp), %rax
	movl	$-2, %esi
	movq	%rax, %rdi
	call	lua_setmetatable@PLT
	movq	-8(%rbp), %rax
	leaq	.LC8(%rip), %rdx
	movq	%rdx, %rsi
	movq	%rax, %rdi
	call	lua_pushstring@PLT
	movq	-16(%rbp), %rdx
	movq	-8(%rbp), %rax
	movq	%rdx, %rsi
	movq	%rax, %rdi
	call	lua_pushstring@PLT
	movq	-8(%rbp), %rax
	movl	$-3, %esi
	movq	%rax, %rdi
	call	lua_settable@PLT
	nop
	leave
	.cfi_def_cfa 7, 8
	ret
	.cfi_endproc
.LFE4950:
	.size	_ZN3bbt6cxxlua6detail7setweakEP9lua_StatePKc, .-_ZN3bbt6cxxlua6detail7setweakEP9lua_StatePKc
	.globl	_ZN3bbt6cxxlua6detail8subtableEP9lua_StateiPKcS5_
	.type	_ZN3bbt6cxxlua6detail8subtableEP9lua_StateiPKcS5_, @function
_ZN3bbt6cxxlua6detail8subtableEP9lua_StateiPKcS5_:
.LFB4951:
	.cfi_startproc
	endbr64
	pushq	%rbp
	.cfi_def_cfa_offset 16
	.cfi_offset 6, -16
	movq	%rsp, %rbp
	.cfi_def_cfa_register 6
	subq	$32, %rsp
	movq	%rdi, -8(%rbp)
	movl	%esi, -12(%rbp)
	movq	%rdx, -24(%rbp)
	movq	%rcx, -32(%rbp)
	movq	-24(%rbp), %rdx
	movq	-8(%rbp), %rax
	movq	%rdx, %rsi
	movq	%rax, %rdi
	call	lua_pushstring@PLT
	movl	-12(%rbp), %edx
	movq	-8(%rbp), %rax
	movl	%edx, %esi
	movq	%rax, %rdi
	call	lua_gettable@PLT
	movq	-8(%rbp), %rax
	movl	$-1, %esi
	movq	%rax, %rdi
	call	lua_type@PLT
	testl	%eax, %eax
	sete	%al
	testb	%al, %al
	je	.L284
	movq	-8(%rbp), %rax
	movl	$0, %esi
	movq	%rax, %rdi
	call	lua_settop@PLT
	movq	-8(%rbp), %rax
	movl	$3, %esi
	movq	%rax, %rdi
	call	lua_checkstack@PLT
	movq	-32(%rbp), %rdx
	movq	-8(%rbp), %rax
	movq	%rdx, %rsi
	movq	%rax, %rdi
	call	_ZN3bbt6cxxlua6detail7setweakEP9lua_StatePKc
	movq	-24(%rbp), %rdx
	movq	-8(%rbp), %rax
	movq	%rdx, %rsi
	movq	%rax, %rdi
	call	lua_pushstring@PLT
	movq	-8(%rbp), %rax
	movl	$-2, %esi
	movq	%rax, %rdi
	call	lua_pushvalue@PLT
	movl	-12(%rbp), %edx
	movq	-8(%rbp), %rax
	movl	%edx, %esi
	movq	%rax, %rdi
	call	lua_settable@PLT
.L284:
	nop
	leave
	.cfi_def_cfa 7, 8
	ret
	.cfi_endproc
.LFE4951:
	.size	_ZN3bbt6cxxlua6detail8subtableEP9lua_StateiPKcS5_, .-_ZN3bbt6cxxlua6detail8subtableEP9lua_StateiPKcS5_
	.local	_ZStL8__ioinit
	.comm	_ZStL8__ioinit,1,1
	.section	.rodata
.LC9:
	.string	"player construct! base: %p\n"
	.section	.text._ZN6PlayerC2Ev,"axG",@progbits,_ZN6PlayerC5Ev,comdat
	.align 2
	.weak	_ZN6PlayerC2Ev
	.type	_ZN6PlayerC2Ev, @function
_ZN6PlayerC2Ev:
.LFB4964:
	.cfi_startproc
	.cfi_personality 0x9b,DW.ref.__gxx_personality_v0
	.cfi_lsda 0x1b,.LLSDA4964
	endbr64
	pushq	%rbp
	.cfi_def_cfa_offset 16
	.cfi_offset 6, -16
	movq	%rsp, %rbp
	.cfi_def_cfa_register 6
	pushq	%rbx
	subq	$24, %rsp
	.cfi_offset 3, -24
	movq	%rdi, -24(%rbp)
	movq	-24(%rbp), %rax
	movq	%rax, %rdi
	call	_ZN3bbt6cxxlua6detail8LuaClassI6PlayerEC2Ev
	movq	-24(%rbp), %rax
	addq	$8, %rax
	movq	%rax, %rdi
	call	_ZNSt7__cxx1112basic_stringIcSt11char_traitsIcESaIcEEC1Ev@PLT
	movq	-24(%rbp), %rax
	movq	%rax, %rsi
	leaq	.LC9(%rip), %rax
	movq	%rax, %rdi
	movl	$0, %eax
.LEHB48:
	call	printf@PLT
.LEHE48:
	jmp	.L288
.L287:
	endbr64
	movq	%rax, %rbx
	movq	-24(%rbp), %rax
	addq	$8, %rax
	movq	%rax, %rdi
	call	_ZNSt7__cxx1112basic_stringIcSt11char_traitsIcESaIcEED1Ev@PLT
	movq	-24(%rbp), %rax
	movq	%rax, %rdi
	call	_ZN3bbt6cxxlua6detail8LuaClassI6PlayerED2Ev
	movq	%rbx, %rax
	movq	%rax, %rdi
.LEHB49:
	call	_Unwind_Resume@PLT
.LEHE49:
.L288:
	movq	-8(%rbp), %rbx
	leave
	.cfi_def_cfa 7, 8
	ret
	.cfi_endproc
.LFE4964:
	.section	.gcc_except_table
.LLSDA4964:
	.byte	0xff
	.byte	0xff
	.byte	0x1
	.uleb128 .LLSDACSE4964-.LLSDACSB4964
.LLSDACSB4964:
	.uleb128 .LEHB48-.LFB4964
	.uleb128 .LEHE48-.LEHB48
	.uleb128 .L287-.LFB4964
	.uleb128 0
	.uleb128 .LEHB49-.LFB4964
	.uleb128 .LEHE49-.LEHB49
	.uleb128 0
	.uleb128 0
.LLSDACSE4964:
	.section	.text._ZN6PlayerC2Ev,"axG",@progbits,_ZN6PlayerC5Ev,comdat
	.size	_ZN6PlayerC2Ev, .-_ZN6PlayerC2Ev
	.weak	_ZN6PlayerC1Ev
	.set	_ZN6PlayerC1Ev,_ZN6PlayerC2Ev
	.section	.rodata
.LC10:
	.string	"player destruct!"
	.section	.text._ZN6PlayerD2Ev,"axG",@progbits,_ZN6PlayerD5Ev,comdat
	.align 2
	.weak	_ZN6PlayerD2Ev
	.type	_ZN6PlayerD2Ev, @function
_ZN6PlayerD2Ev:
.LFB4967:
	.cfi_startproc
	.cfi_personality 0x9b,DW.ref.__gxx_personality_v0
	.cfi_lsda 0x1b,.LLSDA4967
	endbr64
	pushq	%rbp
	.cfi_def_cfa_offset 16
	.cfi_offset 6, -16
	movq	%rsp, %rbp
	.cfi_def_cfa_register 6
	subq	$16, %rsp
	movq	%rdi, -8(%rbp)
	leaq	.LC10(%rip), %rax
	movq	%rax, %rdi
	call	puts@PLT
	movq	-8(%rbp), %rax
	addq	$8, %rax
	movq	%rax, %rdi
	call	_ZNSt7__cxx1112basic_stringIcSt11char_traitsIcESaIcEED1Ev@PLT
	movq	-8(%rbp), %rax
	movq	%rax, %rdi
	call	_ZN3bbt6cxxlua6detail8LuaClassI6PlayerED2Ev
	nop
	leave
	.cfi_def_cfa 7, 8
	ret
	.cfi_endproc
.LFE4967:
	.section	.gcc_except_table
.LLSDA4967:
	.byte	0xff
	.byte	0xff
	.byte	0x1
	.uleb128 .LLSDACSE4967-.LLSDACSB4967
.LLSDACSB4967:
.LLSDACSE4967:
	.section	.text._ZN6PlayerD2Ev,"axG",@progbits,_ZN6PlayerD5Ev,comdat
	.size	_ZN6PlayerD2Ev, .-_ZN6PlayerD2Ev
	.weak	_ZN6PlayerD1Ev
	.set	_ZN6PlayerD1Ev,_ZN6PlayerD2Ev
	.section	.text._ZNSt4pairIKNSt7__cxx1112basic_stringIcSt11char_traitsIcESaIcEEEPFiP9lua_StateEED2Ev,"axG",@progbits,_ZNSt4pairIKNSt7__cxx1112basic_stringIcSt11char_traitsIcESaIcEEEPFiP9lua_StateEED5Ev,comdat
	.align 2
	.weak	_ZNSt4pairIKNSt7__cxx1112basic_stringIcSt11char_traitsIcESaIcEEEPFiP9lua_StateEED2Ev
	.type	_ZNSt4pairIKNSt7__cxx1112basic_stringIcSt11char_traitsIcESaIcEEEPFiP9lua_StateEED2Ev, @function
_ZNSt4pairIKNSt7__cxx1112basic_stringIcSt11char_traitsIcESaIcEEEPFiP9lua_StateEED2Ev:
.LFB4984:
	.cfi_startproc
	endbr64
	pushq	%rbp
	.cfi_def_cfa_offset 16
	.cfi_offset 6, -16
	movq	%rsp, %rbp
	.cfi_def_cfa_register 6
	subq	$16, %rsp
	movq	%rdi, -8(%rbp)
	movq	-8(%rbp), %rax
	movq	%rax, %rdi
	call	_ZNSt7__cxx1112basic_stringIcSt11char_traitsIcESaIcEED1Ev@PLT
	nop
	leave
	.cfi_def_cfa 7, 8
	ret
	.cfi_endproc
.LFE4984:
	.size	_ZNSt4pairIKNSt7__cxx1112basic_stringIcSt11char_traitsIcESaIcEEEPFiP9lua_StateEED2Ev, .-_ZNSt4pairIKNSt7__cxx1112basic_stringIcSt11char_traitsIcESaIcEEEPFiP9lua_StateEED2Ev
	.weak	_ZNSt4pairIKNSt7__cxx1112basic_stringIcSt11char_traitsIcESaIcEEEPFiP9lua_StateEED1Ev
	.set	_ZNSt4pairIKNSt7__cxx1112basic_stringIcSt11char_traitsIcESaIcEEEPFiP9lua_StateEED1Ev,_ZNSt4pairIKNSt7__cxx1112basic_stringIcSt11char_traitsIcESaIcEEEPFiP9lua_StateEED2Ev
	.section	.text._ZNSt4pairIKNSt7__cxx1112basic_stringIcSt11char_traitsIcESaIcEEEPFiP9lua_StateEEC1IRA6_KcSA_Lb1EEEOT_OT0_,"axG",@progbits,_ZNSt4pairIKNSt7__cxx1112basic_stringIcSt11char_traitsIcESaIcEEEPFiP9lua_StateEEC1IRA6_KcSA_Lb1EEEOT_OT0_,comdat
	.align 2
	.weak	_ZNSt4pairIKNSt7__cxx1112basic_stringIcSt11char_traitsIcESaIcEEEPFiP9lua_StateEEC1IRA6_KcSA_Lb1EEEOT_OT0_
	.type	_ZNSt4pairIKNSt7__cxx1112basic_stringIcSt11char_traitsIcESaIcEEEPFiP9lua_StateEEC1IRA6_KcSA_Lb1EEEOT_OT0_, @function
_ZNSt4pairIKNSt7__cxx1112basic_stringIcSt11char_traitsIcESaIcEEEPFiP9lua_StateEEC1IRA6_KcSA_Lb1EEEOT_OT0_:
.LFB4988:
	.cfi_startproc
	.cfi_personality 0x9b,DW.ref.__gxx_personality_v0
	.cfi_lsda 0x1b,.LLSDA4988
	endbr64
	pushq	%rbp
	.cfi_def_cfa_offset 16
	.cfi_offset 6, -16
	movq	%rsp, %rbp
	.cfi_def_cfa_register 6
	pushq	%rbx
	subq	$56, %rsp
	.cfi_offset 3, -24
	movq	%rdi, -40(%rbp)
	movq	%rsi, -48(%rbp)
	movq	%rdx, -56(%rbp)
	movq	%fs:40, %rax
	movq	%rax, -24(%rbp)
	xorl	%eax, %eax
	movq	-40(%rbp), %rbx
	leaq	-25(%rbp), %rax
	movq	%rax, %rdi
	call	_ZNSaIcEC1Ev@PLT
	movq	-48(%rbp), %rax
	movq	%rax, %rdi
	call	_ZSt7forwardIRA6_KcEOT_RNSt16remove_referenceIS3_E4typeE
	movq	%rax, %rcx
	leaq	-25(%rbp), %rax
	movq	%rax, %rdx
	movq	%rcx, %rsi
	movq	%rbx, %rdi
.LEHB50:
	call	_ZNSt7__cxx1112basic_stringIcSt11char_traitsIcESaIcEEC1IS3_EEPKcRKS3_
.LEHE50:
	leaq	-25(%rbp), %rax
	movq	%rax, %rdi
	call	_ZNSaIcED1Ev@PLT
	movq	-56(%rbp), %rax
	movq	%rax, %rdi
	call	_ZSt7forwardIPFiP9lua_StateEEOT_RNSt16remove_referenceIS4_E4typeE
	movq	(%rax), %rdx
	movq	-40(%rbp), %rax
	movq	%rdx, 32(%rax)
	nop
	movq	-24(%rbp), %rax
	subq	%fs:40, %rax
	je	.L293
	jmp	.L295
.L294:
	endbr64
	movq	%rax, %rbx
	leaq	-25(%rbp), %rax
	movq	%rax, %rdi
	call	_ZNSaIcED1Ev@PLT
	movq	%rbx, %rax
	movq	%rax, %rdi
.LEHB51:
	call	_Unwind_Resume@PLT
.LEHE51:
.L295:
	call	__stack_chk_fail@PLT
.L293:
	movq	-8(%rbp), %rbx
	leave
	.cfi_def_cfa 7, 8
	ret
	.cfi_endproc
.LFE4988:
	.section	.gcc_except_table
.LLSDA4988:
	.byte	0xff
	.byte	0xff
	.byte	0x1
	.uleb128 .LLSDACSE4988-.LLSDACSB4988
.LLSDACSB4988:
	.uleb128 .LEHB50-.LFB4988
	.uleb128 .LEHE50-.LEHB50
	.uleb128 .L294-.LFB4988
	.uleb128 0
	.uleb128 .LEHB51-.LFB4988
	.uleb128 .LEHE51-.LEHB51
	.uleb128 0
	.uleb128 0
.LLSDACSE4988:
	.section	.text._ZNSt4pairIKNSt7__cxx1112basic_stringIcSt11char_traitsIcESaIcEEEPFiP9lua_StateEEC1IRA6_KcSA_Lb1EEEOT_OT0_,"axG",@progbits,_ZNSt4pairIKNSt7__cxx1112basic_stringIcSt11char_traitsIcESaIcEEEPFiP9lua_StateEEC1IRA6_KcSA_Lb1EEEOT_OT0_,comdat
	.size	_ZNSt4pairIKNSt7__cxx1112basic_stringIcSt11char_traitsIcESaIcEEEPFiP9lua_StateEEC1IRA6_KcSA_Lb1EEEOT_OT0_, .-_ZNSt4pairIKNSt7__cxx1112basic_stringIcSt11char_traitsIcESaIcEEEPFiP9lua_StateEEC1IRA6_KcSA_Lb1EEEOT_OT0_
	.section	.text._ZNSt4pairIKNSt7__cxx1112basic_stringIcSt11char_traitsIcESaIcEEEPFiP9lua_StateEEC1IRA8_KcSA_Lb1EEEOT_OT0_,"axG",@progbits,_ZNSt4pairIKNSt7__cxx1112basic_stringIcSt11char_traitsIcESaIcEEEPFiP9lua_StateEEC1IRA8_KcSA_Lb1EEEOT_OT0_,comdat
	.align 2
	.weak	_ZNSt4pairIKNSt7__cxx1112basic_stringIcSt11char_traitsIcESaIcEEEPFiP9lua_StateEEC1IRA8_KcSA_Lb1EEEOT_OT0_
	.type	_ZNSt4pairIKNSt7__cxx1112basic_stringIcSt11char_traitsIcESaIcEEEPFiP9lua_StateEEC1IRA8_KcSA_Lb1EEEOT_OT0_, @function
_ZNSt4pairIKNSt7__cxx1112basic_stringIcSt11char_traitsIcESaIcEEEPFiP9lua_StateEEC1IRA8_KcSA_Lb1EEEOT_OT0_:
.LFB4991:
	.cfi_startproc
	.cfi_personality 0x9b,DW.ref.__gxx_personality_v0
	.cfi_lsda 0x1b,.LLSDA4991
	endbr64
	pushq	%rbp
	.cfi_def_cfa_offset 16
	.cfi_offset 6, -16
	movq	%rsp, %rbp
	.cfi_def_cfa_register 6
	pushq	%rbx
	subq	$56, %rsp
	.cfi_offset 3, -24
	movq	%rdi, -40(%rbp)
	movq	%rsi, -48(%rbp)
	movq	%rdx, -56(%rbp)
	movq	%fs:40, %rax
	movq	%rax, -24(%rbp)
	xorl	%eax, %eax
	movq	-40(%rbp), %rbx
	leaq	-25(%rbp), %rax
	movq	%rax, %rdi
	call	_ZNSaIcEC1Ev@PLT
	movq	-48(%rbp), %rax
	movq	%rax, %rdi
	call	_ZSt7forwardIRA8_KcEOT_RNSt16remove_referenceIS3_E4typeE
	movq	%rax, %rcx
	leaq	-25(%rbp), %rax
	movq	%rax, %rdx
	movq	%rcx, %rsi
	movq	%rbx, %rdi
.LEHB52:
	call	_ZNSt7__cxx1112basic_stringIcSt11char_traitsIcESaIcEEC1IS3_EEPKcRKS3_
.LEHE52:
	leaq	-25(%rbp), %rax
	movq	%rax, %rdi
	call	_ZNSaIcED1Ev@PLT
	movq	-56(%rbp), %rax
	movq	%rax, %rdi
	call	_ZSt7forwardIPFiP9lua_StateEEOT_RNSt16remove_referenceIS4_E4typeE
	movq	(%rax), %rdx
	movq	-40(%rbp), %rax
	movq	%rdx, 32(%rax)
	nop
	movq	-24(%rbp), %rax
	subq	%fs:40, %rax
	je	.L298
	jmp	.L300
.L299:
	endbr64
	movq	%rax, %rbx
	leaq	-25(%rbp), %rax
	movq	%rax, %rdi
	call	_ZNSaIcED1Ev@PLT
	movq	%rbx, %rax
	movq	%rax, %rdi
.LEHB53:
	call	_Unwind_Resume@PLT
.LEHE53:
.L300:
	call	__stack_chk_fail@PLT
.L298:
	movq	-8(%rbp), %rbx
	leave
	.cfi_def_cfa 7, 8
	ret
	.cfi_endproc
.LFE4991:
	.section	.gcc_except_table
.LLSDA4991:
	.byte	0xff
	.byte	0xff
	.byte	0x1
	.uleb128 .LLSDACSE4991-.LLSDACSB4991
.LLSDACSB4991:
	.uleb128 .LEHB52-.LFB4991
	.uleb128 .LEHE52-.LEHB52
	.uleb128 .L299-.LFB4991
	.uleb128 0
	.uleb128 .LEHB53-.LFB4991
	.uleb128 .LEHE53-.LEHB53
	.uleb128 0
	.uleb128 0
.LLSDACSE4991:
	.section	.text._ZNSt4pairIKNSt7__cxx1112basic_stringIcSt11char_traitsIcESaIcEEEPFiP9lua_StateEEC1IRA8_KcSA_Lb1EEEOT_OT0_,"axG",@progbits,_ZNSt4pairIKNSt7__cxx1112basic_stringIcSt11char_traitsIcESaIcEEEPFiP9lua_StateEEC1IRA8_KcSA_Lb1EEEOT_OT0_,comdat
	.size	_ZNSt4pairIKNSt7__cxx1112basic_stringIcSt11char_traitsIcESaIcEEEPFiP9lua_StateEEC1IRA8_KcSA_Lb1EEEOT_OT0_, .-_ZNSt4pairIKNSt7__cxx1112basic_stringIcSt11char_traitsIcESaIcEEEPFiP9lua_StateEEC1IRA8_KcSA_Lb1EEEOT_OT0_
	.section	.text._ZZN6Player10CXXLuaInitERSt10unique_ptrIN3bbt6cxxlua6detail8LuaStackESt14default_deleteIS4_EEENKUlP9lua_StateE_clESA_,"axG",@progbits,_ZZN6Player10CXXLuaInitERSt10unique_ptrIN3bbt6cxxlua6detail8LuaStackESt14default_deleteIS4_EEENKUlP9lua_StateE_clESA_,comdat
	.align 2
	.weak	_ZZN6Player10CXXLuaInitERSt10unique_ptrIN3bbt6cxxlua6detail8LuaStackESt14default_deleteIS4_EEENKUlP9lua_StateE_clESA_
	.type	_ZZN6Player10CXXLuaInitERSt10unique_ptrIN3bbt6cxxlua6detail8LuaStackESt14default_deleteIS4_EEENKUlP9lua_StateE_clESA_, @function
_ZZN6Player10CXXLuaInitERSt10unique_ptrIN3bbt6cxxlua6detail8LuaStackESt14default_deleteIS4_EEENKUlP9lua_StateE_clESA_:
.LFB4992:
	.cfi_startproc
	endbr64
	pushq	%rbp
	.cfi_def_cfa_offset 16
	.cfi_offset 6, -16
	movq	%rsp, %rbp
	.cfi_def_cfa_register 6
	subq	$16, %rsp
	movq	%rdi, -8(%rbp)
	movq	%rsi, -16(%rbp)
	movq	-16(%rbp), %rax
	movq	%rax, %rdi
	call	_ZN6Player17cxx2lua_constructEP9lua_State
	leave
	.cfi_def_cfa 7, 8
	ret
	.cfi_endproc
.LFE4992:
	.size	_ZZN6Player10CXXLuaInitERSt10unique_ptrIN3bbt6cxxlua6detail8LuaStackESt14default_deleteIS4_EEENKUlP9lua_StateE_clESA_, .-_ZZN6Player10CXXLuaInitERSt10unique_ptrIN3bbt6cxxlua6detail8LuaStackESt14default_deleteIS4_EEENKUlP9lua_StateE_clESA_
	.section	.text._ZNSt8functionIFP6PlayerP9lua_StateEED2Ev,"axG",@progbits,_ZNSt8functionIFP6PlayerP9lua_StateEED5Ev,comdat
	.align 2
	.weak	_ZNSt8functionIFP6PlayerP9lua_StateEED2Ev
	.type	_ZNSt8functionIFP6PlayerP9lua_StateEED2Ev, @function
_ZNSt8functionIFP6PlayerP9lua_StateEED2Ev:
.LFB4998:
	.cfi_startproc
	endbr64
	pushq	%rbp
	.cfi_def_cfa_offset 16
	.cfi_offset 6, -16
	movq	%rsp, %rbp
	.cfi_def_cfa_register 6
	subq	$16, %rsp
	movq	%rdi, -8(%rbp)
	movq	-8(%rbp), %rax
	movq	%rax, %rdi
	call	_ZNSt14_Function_baseD2Ev
	nop
	leave
	.cfi_def_cfa 7, 8
	ret
	.cfi_endproc
.LFE4998:
	.size	_ZNSt8functionIFP6PlayerP9lua_StateEED2Ev, .-_ZNSt8functionIFP6PlayerP9lua_StateEED2Ev
	.weak	_ZNSt8functionIFP6PlayerP9lua_StateEED1Ev
	.set	_ZNSt8functionIFP6PlayerP9lua_StateEED1Ev,_ZNSt8functionIFP6PlayerP9lua_StateEED2Ev
	.section	.rodata
.LC11:
	.string	"GetId"
.LC12:
	.string	"SetId"
.LC13:
	.string	"GetName"
.LC14:
	.string	"SetName"
.LC15:
	.string	"Player GetId: %p\n"
.LC16:
	.string	"Player"
	.section	.text._ZN6Player10CXXLuaInitERSt10unique_ptrIN3bbt6cxxlua6detail8LuaStackESt14default_deleteIS4_EE,"axG",@progbits,_ZN6Player10CXXLuaInitERSt10unique_ptrIN3bbt6cxxlua6detail8LuaStackESt14default_deleteIS4_EE,comdat
	.weak	_ZN6Player10CXXLuaInitERSt10unique_ptrIN3bbt6cxxlua6detail8LuaStackESt14default_deleteIS4_EE
	.type	_ZN6Player10CXXLuaInitERSt10unique_ptrIN3bbt6cxxlua6detail8LuaStackESt14default_deleteIS4_EE, @function
_ZN6Player10CXXLuaInitERSt10unique_ptrIN3bbt6cxxlua6detail8LuaStackESt14default_deleteIS4_EE:
.LFB4969:
	.cfi_startproc
	.cfi_personality 0x9b,DW.ref.__gxx_personality_v0
	.cfi_lsda 0x1b,.LLSDA4969
	endbr64
	pushq	%rbp
	.cfi_def_cfa_offset 16
	.cfi_offset 6, -16
	movq	%rsp, %rbp
	.cfi_def_cfa_register 6
	pushq	%r15
	pushq	%r14
	pushq	%r13
	pushq	%r12
	pushq	%rbx
	subq	$232, %rsp
	.cfi_offset 15, -24
	.cfi_offset 14, -32
	.cfi_offset 13, -40
	.cfi_offset 12, -48
	.cfi_offset 3, -56
	movq	%rdi, -264(%rbp)
	movq	%fs:40, %rax
	movq	%rax, -56(%rbp)
	xorl	%eax, %eax
	leaq	_ZN6Player13cxx2lua_GetIdEP9lua_State(%rip), %rax
	movq	%rax, -256(%rbp)
	leaq	-256(%rbp), %rdx
	leaq	-224(%rbp), %rax
	leaq	.LC11(%rip), %rcx
	movq	%rcx, %rsi
	movq	%rax, %rdi
.LEHB54:
	call	_ZNSt4pairIKNSt7__cxx1112basic_stringIcSt11char_traitsIcESaIcEEEPFiP9lua_StateEEC1IRA6_KcSA_Lb1EEEOT_OT0_
	leaq	_ZN6Player13cxx2lua_SetIdEP9lua_State(%rip), %rax
	movq	%rax, -248(%rbp)
	leaq	-248(%rbp), %rax
	leaq	-224(%rbp), %rdx
	leaq	40(%rdx), %rcx
	movq	%rax, %rdx
	leaq	.LC12(%rip), %rax
	movq	%rax, %rsi
	movq	%rcx, %rdi
	call	_ZNSt4pairIKNSt7__cxx1112basic_stringIcSt11char_traitsIcESaIcEEEPFiP9lua_StateEEC1IRA6_KcSA_Lb1EEEOT_OT0_
	leaq	_ZN6Player15cxx2lua_GetNameEP9lua_State(%rip), %rax
	movq	%rax, -240(%rbp)
	leaq	-240(%rbp), %rax
	leaq	-224(%rbp), %rdx
	leaq	80(%rdx), %rcx
	movq	%rax, %rdx
	leaq	.LC13(%rip), %rax
	movq	%rax, %rsi
	movq	%rcx, %rdi
	call	_ZNSt4pairIKNSt7__cxx1112basic_stringIcSt11char_traitsIcESaIcEEEPFiP9lua_StateEEC1IRA8_KcSA_Lb1EEEOT_OT0_
	leaq	_ZN6Player15cxx2lua_SetNameEP9lua_State(%rip), %rax
	movq	%rax, -232(%rbp)
	leaq	-232(%rbp), %rax
	leaq	-224(%rbp), %rdx
	leaq	120(%rdx), %rcx
	movq	%rax, %rdx
	leaq	.LC14(%rip), %rax
	movq	%rax, %rsi
	movq	%rcx, %rdi
	call	_ZNSt4pairIKNSt7__cxx1112basic_stringIcSt11char_traitsIcESaIcEEEPFiP9lua_StateEEC1IRA8_KcSA_Lb1EEEOT_OT0_
.LEHE54:
	leaq	-224(%rbp), %rax
	movq	%rax, %r14
	movl	$4, %r15d
	movq	%r14, %rcx
	movq	%r15, %rbx
	movq	%r14, %rax
	movq	%r15, %rdx
	movq	%rdx, %rax
	movq	%rcx, %rdi
	movq	%rax, %rsi
.LEHB55:
	call	_ZN3bbt6cxxlua6detail8LuaClassI6PlayerE9InitFuncsESt16initializer_listISt4pairIKNSt7__cxx1112basic_stringIcSt11char_traitsIcESaIcEEEPFiP9lua_StateEEE
.LEHE55:
	leaq	-224(%rbp), %rbx
	addq	$160, %rbx
.L306:
	leaq	-224(%rbp), %rax
	cmpq	%rax, %rbx
	je	.L305
	subq	$40, %rbx
	movq	%rbx, %rdi
	call	_ZNSt4pairIKNSt7__cxx1112basic_stringIcSt11char_traitsIcESaIcEEEPFiP9lua_StateEED1Ev
	jmp	.L306
.L305:
	leaq	_ZN6Player13cxx2lua_GetIdEP9lua_State(%rip), %r12
	movl	$0, %r13d
	movq	%r12, %rcx
	movq	%r13, %rbx
	movq	%r12, %rax
	movq	%r13, %rdx
	movq	%rdx, %rax
	movq	%rcx, %rsi
	movq	%rax, %rdx
	leaq	.LC15(%rip), %rax
	movq	%rax, %rdi
	movl	$0, %eax
.LEHB56:
	call	printf@PLT
.LEHE56:
	leaq	-232(%rbp), %rax
	movq	%rax, %rdi
	call	_ZNSaIcEC1Ev@PLT
	leaq	-232(%rbp), %rdx
	leaq	-224(%rbp), %rax
	leaq	.LC16(%rip), %rcx
	movq	%rcx, %rsi
	movq	%rax, %rdi
.LEHB57:
	call	_ZNSt7__cxx1112basic_stringIcSt11char_traitsIcESaIcEEC1IS3_EEPKcRKS3_
.LEHE57:
	leaq	-224(%rbp), %rax
	movq	%rax, %rdi
.LEHB58:
	call	_ZN3bbt6cxxlua6detail8LuaClassI6PlayerE9InitClassERKNSt7__cxx1112basic_stringIcSt11char_traitsIcESaIcEEE
.LEHE58:
	leaq	-224(%rbp), %rax
	movq	%rax, %rdi
	call	_ZNSt7__cxx1112basic_stringIcSt11char_traitsIcESaIcEED1Ev@PLT
	leaq	-232(%rbp), %rax
	movq	%rax, %rdi
	call	_ZNSaIcED1Ev@PLT
	leaq	-232(%rbp), %rdx
	leaq	-224(%rbp), %rax
	movq	%rdx, %rsi
	movq	%rax, %rdi
	call	_ZNSt8functionIFP6PlayerP9lua_StateEEC1IZNS0_10CXXLuaInitERSt10unique_ptrIN3bbt6cxxlua6detail8LuaStackESt14default_deleteISB_EEEUlS3_E_vEEOT_
	leaq	-224(%rbp), %rax
	movq	%rax, %rdi
.LEHB59:
	call	_ZN3bbt6cxxlua6detail8LuaClassI6PlayerE15InitConstructorERKSt8functionIFPS3_P9lua_StateEE
.LEHE59:
	leaq	-224(%rbp), %rax
	movq	%rax, %rdi
	call	_ZNSt8functionIFP6PlayerP9lua_StateEED1Ev
	movq	-264(%rbp), %rax
	movq	%rax, %rdi
.LEHB60:
	call	_ZN3bbt6cxxlua6detail8LuaClassI6PlayerE8RegisterERSt10unique_ptrINS1_8LuaStackESt14default_deleteIS6_EE
	nop
	movq	-56(%rbp), %rax
	subq	%fs:40, %rax
	je	.L313
	jmp	.L318
.L314:
	endbr64
	movq	%rax, %r12
	leaq	-224(%rbp), %rbx
	addq	$160, %rbx
.L309:
	leaq	-224(%rbp), %rax
	cmpq	%rax, %rbx
	je	.L308
	subq	$40, %rbx
	movq	%rbx, %rdi
	call	_ZNSt4pairIKNSt7__cxx1112basic_stringIcSt11char_traitsIcESaIcEEEPFiP9lua_StateEED1Ev
	jmp	.L309
.L308:
	movq	%r12, %rax
	movq	%rax, %rdi
	call	_Unwind_Resume@PLT
.L316:
	endbr64
	movq	%rax, %rbx
	leaq	-224(%rbp), %rax
	movq	%rax, %rdi
	call	_ZNSt7__cxx1112basic_stringIcSt11char_traitsIcESaIcEED1Ev@PLT
	jmp	.L311
.L315:
	endbr64
	movq	%rax, %rbx
.L311:
	leaq	-232(%rbp), %rax
	movq	%rax, %rdi
	call	_ZNSaIcED1Ev@PLT
	movq	%rbx, %rax
	movq	%rax, %rdi
	call	_Unwind_Resume@PLT
.L317:
	endbr64
	movq	%rax, %rbx
	leaq	-224(%rbp), %rax
	movq	%rax, %rdi
	call	_ZNSt8functionIFP6PlayerP9lua_StateEED1Ev
	movq	%rbx, %rax
	movq	%rax, %rdi
	call	_Unwind_Resume@PLT
.LEHE60:
.L318:
	call	__stack_chk_fail@PLT
.L313:
	addq	$232, %rsp
	popq	%rbx
	popq	%r12
	popq	%r13
	popq	%r14
	popq	%r15
	popq	%rbp
	.cfi_def_cfa 7, 8
	ret
	.cfi_endproc
.LFE4969:
	.section	.gcc_except_table
.LLSDA4969:
	.byte	0xff
	.byte	0xff
	.byte	0x1
	.uleb128 .LLSDACSE4969-.LLSDACSB4969
.LLSDACSB4969:
	.uleb128 .LEHB54-.LFB4969
	.uleb128 .LEHE54-.LEHB54
	.uleb128 0
	.uleb128 0
	.uleb128 .LEHB55-.LFB4969
	.uleb128 .LEHE55-.LEHB55
	.uleb128 .L314-.LFB4969
	.uleb128 0
	.uleb128 .LEHB56-.LFB4969
	.uleb128 .LEHE56-.LEHB56
	.uleb128 0
	.uleb128 0
	.uleb128 .LEHB57-.LFB4969
	.uleb128 .LEHE57-.LEHB57
	.uleb128 .L315-.LFB4969
	.uleb128 0
	.uleb128 .LEHB58-.LFB4969
	.uleb128 .LEHE58-.LEHB58
	.uleb128 .L316-.LFB4969
	.uleb128 0
	.uleb128 .LEHB59-.LFB4969
	.uleb128 .LEHE59-.LEHB59
	.uleb128 .L317-.LFB4969
	.uleb128 0
	.uleb128 .LEHB60-.LFB4969
	.uleb128 .LEHE60-.LEHB60
	.uleb128 0
	.uleb128 0
.LLSDACSE4969:
	.section	.text._ZN6Player10CXXLuaInitERSt10unique_ptrIN3bbt6cxxlua6detail8LuaStackESt14default_deleteIS4_EE,"axG",@progbits,_ZN6Player10CXXLuaInitERSt10unique_ptrIN3bbt6cxxlua6detail8LuaStackESt14default_deleteIS4_EE,comdat
	.size	_ZN6Player10CXXLuaInitERSt10unique_ptrIN3bbt6cxxlua6detail8LuaStackESt14default_deleteIS4_EE, .-_ZN6Player10CXXLuaInitERSt10unique_ptrIN3bbt6cxxlua6detail8LuaStackESt14default_deleteIS4_EE
	.section	.rodata
.LC17:
	.string	"this:%p\n"
	.section	.text._ZN6Player13cxx2lua_GetIdEP9lua_State,"axG",@progbits,_ZN6Player13cxx2lua_GetIdEP9lua_State,comdat
	.align 2
	.weak	_ZN6Player13cxx2lua_GetIdEP9lua_State
	.type	_ZN6Player13cxx2lua_GetIdEP9lua_State, @function
_ZN6Player13cxx2lua_GetIdEP9lua_State:
.LFB5000:
	.cfi_startproc
	endbr64
	pushq	%rbp
	.cfi_def_cfa_offset 16
	.cfi_offset 6, -16
	movq	%rsp, %rbp
	.cfi_def_cfa_register 6
	subq	$32, %rsp
	movq	%rdi, -24(%rbp)
	movq	%rsi, -32(%rbp)
	movq	-24(%rbp), %rax
	movq	%rax, %rsi
	leaq	.LC17(%rip), %rax
	movq	%rax, %rdi
	movl	$0, %eax
	call	printf@PLT
	movq	-24(%rbp), %rax
	movl	(%rax), %eax
	movl	%eax, -4(%rbp)
	movq	-24(%rbp), %rax
	movl	(%rax), %eax
	movslq	%eax, %rdx
	movq	-32(%rbp), %rax
	movq	%rdx, %rsi
	movq	%rax, %rdi
	call	lua_pushinteger@PLT
	movl	$1, %eax
	leave
	.cfi_def_cfa 7, 8
	ret
	.cfi_endproc
.LFE5000:
	.size	_ZN6Player13cxx2lua_GetIdEP9lua_State, .-_ZN6Player13cxx2lua_GetIdEP9lua_State
	.section	.text._ZN6Player13cxx2lua_SetIdEP9lua_State,"axG",@progbits,_ZN6Player13cxx2lua_SetIdEP9lua_State,comdat
	.align 2
	.weak	_ZN6Player13cxx2lua_SetIdEP9lua_State
	.type	_ZN6Player13cxx2lua_SetIdEP9lua_State, @function
_ZN6Player13cxx2lua_SetIdEP9lua_State:
.LFB5001:
	.cfi_startproc
	endbr64
	pushq	%rbp
	.cfi_def_cfa_offset 16
	.cfi_offset 6, -16
	movq	%rsp, %rbp
	.cfi_def_cfa_register 6
	subq	$16, %rsp
	movq	%rdi, -8(%rbp)
	movq	%rsi, -16(%rbp)
	movq	-16(%rbp), %rax
	movl	$0, %edx
	movl	$-1, %esi
	movq	%rax, %rdi
	call	lua_tointegerx@PLT
	movl	%eax, %edx
	movq	-8(%rbp), %rax
	movl	%edx, (%rax)
	movl	$0, %eax
	leave
	.cfi_def_cfa 7, 8
	ret
	.cfi_endproc
.LFE5001:
	.size	_ZN6Player13cxx2lua_SetIdEP9lua_State, .-_ZN6Player13cxx2lua_SetIdEP9lua_State
	.section	.text._ZN6Player15cxx2lua_GetNameEP9lua_State,"axG",@progbits,_ZN6Player15cxx2lua_GetNameEP9lua_State,comdat
	.align 2
	.weak	_ZN6Player15cxx2lua_GetNameEP9lua_State
	.type	_ZN6Player15cxx2lua_GetNameEP9lua_State, @function
_ZN6Player15cxx2lua_GetNameEP9lua_State:
.LFB5002:
	.cfi_startproc
	endbr64
	pushq	%rbp
	.cfi_def_cfa_offset 16
	.cfi_offset 6, -16
	movq	%rsp, %rbp
	.cfi_def_cfa_register 6
	subq	$16, %rsp
	movq	%rdi, -8(%rbp)
	movq	%rsi, -16(%rbp)
	movq	-8(%rbp), %rax
	addq	$8, %rax
	movq	%rax, %rdi
	call	_ZNKSt7__cxx1112basic_stringIcSt11char_traitsIcESaIcEE5c_strEv@PLT
	movq	%rax, %rdx
	movq	-16(%rbp), %rax
	movq	%rdx, %rsi
	movq	%rax, %rdi
	call	lua_pushstring@PLT
	movl	$1, %eax
	leave
	.cfi_def_cfa 7, 8
	ret
	.cfi_endproc
.LFE5002:
	.size	_ZN6Player15cxx2lua_GetNameEP9lua_State, .-_ZN6Player15cxx2lua_GetNameEP9lua_State
	.section	.rodata
	.align 8
.LC18:
	.string	"int Player::cxx2lua_SetName(lua_State*)"
.LC19:
	.string	"luaclass.cc"
.LC20:
	.string	"name != nullptr"
	.section	.text._ZN6Player15cxx2lua_SetNameEP9lua_State,"axG",@progbits,_ZN6Player15cxx2lua_SetNameEP9lua_State,comdat
	.align 2
	.weak	_ZN6Player15cxx2lua_SetNameEP9lua_State
	.type	_ZN6Player15cxx2lua_SetNameEP9lua_State, @function
_ZN6Player15cxx2lua_SetNameEP9lua_State:
.LFB5003:
	.cfi_startproc
	endbr64
	pushq	%rbp
	.cfi_def_cfa_offset 16
	.cfi_offset 6, -16
	movq	%rsp, %rbp
	.cfi_def_cfa_register 6
	subq	$32, %rsp
	movq	%rdi, -24(%rbp)
	movq	%rsi, -32(%rbp)
	movq	-32(%rbp), %rax
	movl	$0, %edx
	movl	$-1, %esi
	movq	%rax, %rdi
	call	lua_tolstring@PLT
	movq	%rax, -8(%rbp)
	cmpq	$0, -8(%rbp)
	jne	.L326
	leaq	.LC18(%rip), %rax
	movq	%rax, %rcx
	movl	$51, %edx
	leaq	.LC19(%rip), %rax
	movq	%rax, %rsi
	leaq	.LC20(%rip), %rax
	movq	%rax, %rdi
	call	__assert_fail@PLT
.L326:
	movq	-24(%rbp), %rax
	leaq	8(%rax), %rdx
	movq	-8(%rbp), %rax
	movq	%rax, %rsi
	movq	%rdx, %rdi
	call	_ZNSt7__cxx1112basic_stringIcSt11char_traitsIcESaIcEEaSEPKc@PLT
	movl	$0, %eax
	leave
	.cfi_def_cfa 7, 8
	ret
	.cfi_endproc
.LFE5003:
	.size	_ZN6Player15cxx2lua_SetNameEP9lua_State, .-_ZN6Player15cxx2lua_SetNameEP9lua_State
	.section	.text._ZN6Player17cxx2lua_constructEP9lua_State,"axG",@progbits,_ZN6Player17cxx2lua_constructEP9lua_State,comdat
	.weak	_ZN6Player17cxx2lua_constructEP9lua_State
	.type	_ZN6Player17cxx2lua_constructEP9lua_State, @function
_ZN6Player17cxx2lua_constructEP9lua_State:
.LFB5004:
	.cfi_startproc
	.cfi_personality 0x9b,DW.ref.__gxx_personality_v0
	.cfi_lsda 0x1b,.LLSDA5004
	endbr64
	pushq	%rbp
	.cfi_def_cfa_offset 16
	.cfi_offset 6, -16
	movq	%rsp, %rbp
	.cfi_def_cfa_register 6
	pushq	%r12
	pushq	%rbx
	subq	$48, %rsp
	.cfi_offset 12, -24
	.cfi_offset 3, -32
	movq	%rdi, -56(%rbp)
	movq	-56(%rbp), %rax
	movl	$0, %edx
	movl	$-1, %esi
	movq	%rax, %rdi
.LEHB61:
	call	lua_tointegerx@PLT
	movq	%rax, -40(%rbp)
	movq	-56(%rbp), %rax
	movl	$0, %edx
	movl	$-2, %esi
	movq	%rax, %rdi
	call	lua_tolstring@PLT
	movq	%rax, -32(%rbp)
	movl	$40, %edi
	call	_Znwm@PLT
.LEHE61:
	movq	%rax, %rbx
	movq	%rbx, %rdi
.LEHB62:
	call	_ZN6PlayerC1Ev
.LEHE62:
	movq	%rbx, -24(%rbp)
	movq	-40(%rbp), %rax
	movl	%eax, %ecx
	movq	-32(%rbp), %rdx
	movq	-24(%rbp), %rax
	movl	%ecx, %esi
	movq	%rax, %rdi
.LEHB63:
	call	_ZN6Player8InitArgsEiPKc
	movq	-24(%rbp), %rax
	jmp	.L332
.L331:
	endbr64
	movq	%rax, %r12
	movl	$40, %esi
	movq	%rbx, %rdi
	call	_ZdlPvm@PLT
	movq	%r12, %rax
	movq	%rax, %rdi
	call	_Unwind_Resume@PLT
.LEHE63:
.L332:
	addq	$48, %rsp
	popq	%rbx
	popq	%r12
	popq	%rbp
	.cfi_def_cfa 7, 8
	ret
	.cfi_endproc
.LFE5004:
	.section	.gcc_except_table
.LLSDA5004:
	.byte	0xff
	.byte	0xff
	.byte	0x1
	.uleb128 .LLSDACSE5004-.LLSDACSB5004
.LLSDACSB5004:
	.uleb128 .LEHB61-.LFB5004
	.uleb128 .LEHE61-.LEHB61
	.uleb128 0
	.uleb128 0
	.uleb128 .LEHB62-.LFB5004
	.uleb128 .LEHE62-.LEHB62
	.uleb128 .L331-.LFB5004
	.uleb128 0
	.uleb128 .LEHB63-.LFB5004
	.uleb128 .LEHE63-.LEHB63
	.uleb128 0
	.uleb128 0
.LLSDACSE5004:
	.section	.text._ZN6Player17cxx2lua_constructEP9lua_State,"axG",@progbits,_ZN6Player17cxx2lua_constructEP9lua_State,comdat
	.size	_ZN6Player17cxx2lua_constructEP9lua_State, .-_ZN6Player17cxx2lua_constructEP9lua_State
	.section	.text._ZN6Player8InitArgsEiPKc,"axG",@progbits,_ZN6Player8InitArgsEiPKc,comdat
	.align 2
	.weak	_ZN6Player8InitArgsEiPKc
	.type	_ZN6Player8InitArgsEiPKc, @function
_ZN6Player8InitArgsEiPKc:
.LFB5005:
	.cfi_startproc
	endbr64
	pushq	%rbp
	.cfi_def_cfa_offset 16
	.cfi_offset 6, -16
	movq	%rsp, %rbp
	.cfi_def_cfa_register 6
	subq	$32, %rsp
	movq	%rdi, -8(%rbp)
	movl	%esi, -12(%rbp)
	movq	%rdx, -24(%rbp)
	movq	-8(%rbp), %rax
	movl	-12(%rbp), %edx
	movl	%edx, (%rax)
	movq	-8(%rbp), %rax
	leaq	8(%rax), %rdx
	movq	-24(%rbp), %rax
	movq	%rax, %rsi
	movq	%rdx, %rdi
	call	_ZNSt7__cxx1112basic_stringIcSt11char_traitsIcESaIcEEaSEPKc@PLT
	nop
	leave
	.cfi_def_cfa 7, 8
	ret
	.cfi_endproc
.LFE5005:
	.size	_ZN6Player8InitArgsEiPKc, .-_ZN6Player8InitArgsEiPKc
	.section	.text._ZNSt8functionIFSt8optionalIN3bbt6cxxlua6detail6LuaErrEERSt10unique_ptrINS3_8LuaStackESt14default_deleteIS7_EEEED2Ev,"axG",@progbits,_ZNSt8functionIFSt8optionalIN3bbt6cxxlua6detail6LuaErrEERSt10unique_ptrINS3_8LuaStackESt14default_deleteIS7_EEEED5Ev,comdat
	.align 2
	.weak	_ZNSt8functionIFSt8optionalIN3bbt6cxxlua6detail6LuaErrEERSt10unique_ptrINS3_8LuaStackESt14default_deleteIS7_EEEED2Ev
	.type	_ZNSt8functionIFSt8optionalIN3bbt6cxxlua6detail6LuaErrEERSt10unique_ptrINS3_8LuaStackESt14default_deleteIS7_EEEED2Ev, @function
_ZNSt8functionIFSt8optionalIN3bbt6cxxlua6detail6LuaErrEERSt10unique_ptrINS3_8LuaStackESt14default_deleteIS7_EEEED2Ev:
.LFB5009:
	.cfi_startproc
	endbr64
	pushq	%rbp
	.cfi_def_cfa_offset 16
	.cfi_offset 6, -16
	movq	%rsp, %rbp
	.cfi_def_cfa_register 6
	subq	$16, %rsp
	movq	%rdi, -8(%rbp)
	movq	-8(%rbp), %rax
	movq	%rax, %rdi
	call	_ZNSt14_Function_baseD2Ev
	nop
	leave
	.cfi_def_cfa 7, 8
	ret
	.cfi_endproc
.LFE5009:
	.size	_ZNSt8functionIFSt8optionalIN3bbt6cxxlua6detail6LuaErrEERSt10unique_ptrINS3_8LuaStackESt14default_deleteIS7_EEEED2Ev, .-_ZNSt8functionIFSt8optionalIN3bbt6cxxlua6detail6LuaErrEERSt10unique_ptrINS3_8LuaStackESt14default_deleteIS7_EEEED2Ev
	.weak	_ZNSt8functionIFSt8optionalIN3bbt6cxxlua6detail6LuaErrEERSt10unique_ptrINS3_8LuaStackESt14default_deleteIS7_EEEED1Ev
	.set	_ZNSt8functionIFSt8optionalIN3bbt6cxxlua6detail6LuaErrEERSt10unique_ptrINS3_8LuaStackESt14default_deleteIS7_EEEED1Ev,_ZNSt8functionIFSt8optionalIN3bbt6cxxlua6detail6LuaErrEERSt10unique_ptrINS3_8LuaStackESt14default_deleteIS7_EEEED2Ev
	.section	.rodata
	.align 8
.LC21:
	.string	"example/lua/script/luaclass/luaclass.lua"
.LC22:
	.string	"Main"
	.text
	.globl	main
	.type	main, @function
main:
.LFB5007:
	.cfi_startproc
	.cfi_personality 0x9b,DW.ref.__gxx_personality_v0
	.cfi_lsda 0x1b,.LLSDA5007
	endbr64
	pushq	%rbp
	.cfi_def_cfa_offset 16
	.cfi_offset 6, -16
	movq	%rsp, %rbp
	.cfi_def_cfa_register 6
	pushq	%rbx
	subq	$216, %rsp
	.cfi_offset 3, -24
	movq	%fs:40, %rax
	movq	%rax, -24(%rbp)
	xorl	%eax, %eax
	leaq	-216(%rbp), %rax
	movq	%rax, %rdi
.LEHB64:
	call	_ZN3bbt6cxxlua6detail5LuaVMC1Ev
.LEHE64:
	leaq	-216(%rbp), %rax
	movq	%rax, %rdi
.LEHB65:
	call	_ZN3bbt6cxxlua6detail5LuaVM11RegistClassI6PlayerEEvv
	leaq	-208(%rbp), %rax
	leaq	-216(%rbp), %rdx
	movq	%rdx, %rsi
	movq	%rax, %rdi
	call	_ZN3bbt6cxxlua6detail5LuaVM14LoadLuaLibraryEv
.LEHE65:
	leaq	-208(%rbp), %rax
	movq	%rax, %rdi
	call	_ZNSt8optionalIN3bbt6cxxlua6detail6LuaErrEED1Ev
	leaq	-217(%rbp), %rax
	movq	%rax, %rdi
	call	_ZNSaIcEC1Ev@PLT
	leaq	-217(%rbp), %rdx
	leaq	-80(%rbp), %rax
	leaq	.LC21(%rip), %rcx
	movq	%rcx, %rsi
	movq	%rax, %rdi
.LEHB66:
	call	_ZNSt7__cxx1112basic_stringIcSt11char_traitsIcESaIcEEC1IS3_EEPKcRKS3_
.LEHE66:
	leaq	-144(%rbp), %rax
	leaq	-80(%rbp), %rdx
	leaq	-216(%rbp), %rcx
	movq	%rcx, %rsi
	movq	%rax, %rdi
.LEHB67:
	call	_ZN3bbt6cxxlua6detail5LuaVM8LoadFileERKNSt7__cxx1112basic_stringIcSt11char_traitsIcESaIcEEE
.LEHE67:
	leaq	-144(%rbp), %rax
	movq	%rax, %rdi
	call	_ZNSt8optionalIN3bbt6cxxlua6detail6LuaErrEED1Ev
	leaq	-80(%rbp), %rax
	movq	%rax, %rdi
	call	_ZNSt7__cxx1112basic_stringIcSt11char_traitsIcESaIcEED1Ev@PLT
	leaq	-217(%rbp), %rax
	movq	%rax, %rdi
	call	_ZNSaIcED1Ev@PLT
	leaq	-144(%rbp), %rax
	movl	$0, %esi
	movq	%rax, %rdi
	call	_ZNSt8functionIFSt8optionalIN3bbt6cxxlua6detail6LuaErrEERSt10unique_ptrINS3_8LuaStackESt14default_deleteIS7_EEEEC1EDn
	leaq	-217(%rbp), %rax
	movq	%rax, %rdi
	call	_ZNSaIcEC1Ev@PLT
	leaq	-217(%rbp), %rdx
	leaq	-208(%rbp), %rax
	leaq	.LC22(%rip), %rcx
	movq	%rcx, %rsi
	movq	%rax, %rdi
.LEHB68:
	call	_ZNSt7__cxx1112basic_stringIcSt11char_traitsIcESaIcEEC1IS3_EEPKcRKS3_
.LEHE68:
	leaq	-80(%rbp), %rax
	leaq	-144(%rbp), %rcx
	leaq	-208(%rbp), %rdx
	leaq	-216(%rbp), %rsi
	movq	%rcx, %r8
	movl	$0, %ecx
	movq	%rax, %rdi
.LEHB69:
	call	_ZN3bbt6cxxlua6detail5LuaVM15CallLuaFunctionIJEEESt8optionalINS1_6LuaErrEERKNSt7__cxx1112basic_stringIcSt11char_traitsIcESaIcEEEiRKSt8functionIFS6_RSt10unique_ptrINS1_8LuaStackESt14default_deleteISH_EEEEDpT_
.LEHE69:
	leaq	-208(%rbp), %rax
	movq	%rax, %rdi
	call	_ZNSt7__cxx1112basic_stringIcSt11char_traitsIcESaIcEED1Ev@PLT
	leaq	-217(%rbp), %rax
	movq	%rax, %rdi
	call	_ZNSaIcED1Ev@PLT
	leaq	-144(%rbp), %rax
	movq	%rax, %rdi
	call	_ZNSt8functionIFSt8optionalIN3bbt6cxxlua6detail6LuaErrEERSt10unique_ptrINS3_8LuaStackESt14default_deleteIS7_EEEED1Ev
	leaq	-80(%rbp), %rax
	movq	%rax, %rdi
	call	_ZStneIN3bbt6cxxlua6detail6LuaErrEEbRKSt8optionalIT_ESt9nullopt_t
	testb	%al, %al
	je	.L336
	leaq	-80(%rbp), %rax
	movq	%rax, %rdi
.LEHB70:
	call	_ZNRSt8optionalIN3bbt6cxxlua6detail6LuaErrEE5valueEv
	movq	%rax, %rdx
	leaq	-144(%rbp), %rax
	movq	%rdx, %rsi
	movq	%rax, %rdi
	call	_ZN3bbt6cxxlua6detail6LuaErr4WhatB5cxx11Ev
.LEHE70:
	leaq	-144(%rbp), %rax
	movq	%rax, %rdi
	call	_ZNKSt7__cxx1112basic_stringIcSt11char_traitsIcESaIcEE5c_strEv@PLT
	movq	%rax, %rdi
.LEHB71:
	call	puts@PLT
.LEHE71:
	leaq	-144(%rbp), %rax
	movq	%rax, %rdi
	call	_ZNSt7__cxx1112basic_stringIcSt11char_traitsIcESaIcEED1Ev@PLT
.L336:
	leaq	-80(%rbp), %rax
	movq	%rax, %rdi
	call	_ZNSt8optionalIN3bbt6cxxlua6detail6LuaErrEED1Ev
	leaq	-216(%rbp), %rax
	movq	%rax, %rdi
	call	_ZN3bbt6cxxlua6detail5LuaVMD1Ev
	movl	$0, %eax
	movq	-24(%rbp), %rdx
	subq	%fs:40, %rdx
	je	.L345
	jmp	.L353
.L348:
	endbr64
	movq	%rax, %rbx
	leaq	-80(%rbp), %rax
	movq	%rax, %rdi
	call	_ZNSt7__cxx1112basic_stringIcSt11char_traitsIcESaIcEED1Ev@PLT
	jmp	.L339
.L347:
	endbr64
	movq	%rax, %rbx
.L339:
	leaq	-217(%rbp), %rax
	movq	%rax, %rdi
	call	_ZNSaIcED1Ev@PLT
	jmp	.L340
.L350:
	endbr64
	movq	%rax, %rbx
	leaq	-208(%rbp), %rax
	movq	%rax, %rdi
	call	_ZNSt7__cxx1112basic_stringIcSt11char_traitsIcESaIcEED1Ev@PLT
	jmp	.L342
.L349:
	endbr64
	movq	%rax, %rbx
.L342:
	leaq	-217(%rbp), %rax
	movq	%rax, %rdi
	call	_ZNSaIcED1Ev@PLT
	leaq	-144(%rbp), %rax
	movq	%rax, %rdi
	call	_ZNSt8functionIFSt8optionalIN3bbt6cxxlua6detail6LuaErrEERSt10unique_ptrINS3_8LuaStackESt14default_deleteIS7_EEEED1Ev
	jmp	.L340
.L352:
	endbr64
	movq	%rax, %rbx
	leaq	-144(%rbp), %rax
	movq	%rax, %rdi
	call	_ZNSt7__cxx1112basic_stringIcSt11char_traitsIcESaIcEED1Ev@PLT
	jmp	.L344
.L351:
	endbr64
	movq	%rax, %rbx
.L344:
	leaq	-80(%rbp), %rax
	movq	%rax, %rdi
	call	_ZNSt8optionalIN3bbt6cxxlua6detail6LuaErrEED1Ev
	jmp	.L340
.L346:
	endbr64
	movq	%rax, %rbx
.L340:
	leaq	-216(%rbp), %rax
	movq	%rax, %rdi
	call	_ZN3bbt6cxxlua6detail5LuaVMD1Ev
	movq	%rbx, %rax
	movq	%rax, %rdi
.LEHB72:
	call	_Unwind_Resume@PLT
.LEHE72:
.L353:
	call	__stack_chk_fail@PLT
.L345:
	movq	-8(%rbp), %rbx
	leave
	.cfi_def_cfa 7, 8
	ret
	.cfi_endproc
.LFE5007:
	.section	.gcc_except_table
.LLSDA5007:
	.byte	0xff
	.byte	0xff
	.byte	0x1
	.uleb128 .LLSDACSE5007-.LLSDACSB5007
.LLSDACSB5007:
	.uleb128 .LEHB64-.LFB5007
	.uleb128 .LEHE64-.LEHB64
	.uleb128 0
	.uleb128 0
	.uleb128 .LEHB65-.LFB5007
	.uleb128 .LEHE65-.LEHB65
	.uleb128 .L346-.LFB5007
	.uleb128 0
	.uleb128 .LEHB66-.LFB5007
	.uleb128 .LEHE66-.LEHB66
	.uleb128 .L347-.LFB5007
	.uleb128 0
	.uleb128 .LEHB67-.LFB5007
	.uleb128 .LEHE67-.LEHB67
	.uleb128 .L348-.LFB5007
	.uleb128 0
	.uleb128 .LEHB68-.LFB5007
	.uleb128 .LEHE68-.LEHB68
	.uleb128 .L349-.LFB5007
	.uleb128 0
	.uleb128 .LEHB69-.LFB5007
	.uleb128 .LEHE69-.LEHB69
	.uleb128 .L350-.LFB5007
	.uleb128 0
	.uleb128 .LEHB70-.LFB5007
	.uleb128 .LEHE70-.LEHB70
	.uleb128 .L351-.LFB5007
	.uleb128 0
	.uleb128 .LEHB71-.LFB5007
	.uleb128 .LEHE71-.LEHB71
	.uleb128 .L352-.LFB5007
	.uleb128 0
	.uleb128 .LEHB72-.LFB5007
	.uleb128 .LEHE72-.LEHB72
	.uleb128 0
	.uleb128 0
.LLSDACSE5007:
	.text
	.size	main, .-main
	.section	.text._ZN9__gnu_cxx11char_traitsIcE2eqERKcS3_,"axG",@progbits,_ZN9__gnu_cxx11char_traitsIcE2eqERKcS3_,comdat
	.weak	_ZN9__gnu_cxx11char_traitsIcE2eqERKcS3_
	.type	_ZN9__gnu_cxx11char_traitsIcE2eqERKcS3_, @function
_ZN9__gnu_cxx11char_traitsIcE2eqERKcS3_:
.LFB5024:
	.cfi_startproc
	endbr64
	pushq	%rbp
	.cfi_def_cfa_offset 16
	.cfi_offset 6, -16
	movq	%rsp, %rbp
	.cfi_def_cfa_register 6
	movq	%rdi, -8(%rbp)
	movq	%rsi, -16(%rbp)
	movq	-8(%rbp), %rax
	movzbl	(%rax), %edx
	movq	-16(%rbp), %rax
	movzbl	(%rax), %eax
	cmpb	%al, %dl
	sete	%al
	popq	%rbp
	.cfi_def_cfa 7, 8
	ret
	.cfi_endproc
.LFE5024:
	.size	_ZN9__gnu_cxx11char_traitsIcE2eqERKcS3_, .-_ZN9__gnu_cxx11char_traitsIcE2eqERKcS3_
	.section	.text._ZN9__gnu_cxx11char_traitsIcE6lengthEPKc,"axG",@progbits,_ZN9__gnu_cxx11char_traitsIcE6lengthEPKc,comdat
	.align 2
	.weak	_ZN9__gnu_cxx11char_traitsIcE6lengthEPKc
	.type	_ZN9__gnu_cxx11char_traitsIcE6lengthEPKc, @function
_ZN9__gnu_cxx11char_traitsIcE6lengthEPKc:
.LFB5023:
	.cfi_startproc
	endbr64
	pushq	%rbp
	.cfi_def_cfa_offset 16
	.cfi_offset 6, -16
	movq	%rsp, %rbp
	.cfi_def_cfa_register 6
	subq	$48, %rsp
	movq	%rdi, -40(%rbp)
	movq	%fs:40, %rax
	movq	%rax, -8(%rbp)
	xorl	%eax, %eax
	movq	$0, -16(%rbp)
	jmp	.L357
.L358:
	addq	$1, -16(%rbp)
.L357:
	movb	$0, -17(%rbp)
	movq	-40(%rbp), %rdx
	movq	-16(%rbp), %rax
	addq	%rax, %rdx
	leaq	-17(%rbp), %rax
	movq	%rax, %rsi
	movq	%rdx, %rdi
	call	_ZN9__gnu_cxx11char_traitsIcE2eqERKcS3_
	xorl	$1, %eax
	testb	%al, %al
	jne	.L358
	movq	-16(%rbp), %rax
	movq	-8(%rbp), %rdx
	subq	%fs:40, %rdx
	je	.L360
	call	__stack_chk_fail@PLT
.L360:
	leave
	.cfi_def_cfa 7, 8
	ret
	.cfi_endproc
.LFE5023:
	.size	_ZN9__gnu_cxx11char_traitsIcE6lengthEPKc, .-_ZN9__gnu_cxx11char_traitsIcE6lengthEPKc
	.section	.text._ZNSt7__cxx1112basic_stringIcSt11char_traitsIcESaIcEE12_Alloc_hiderD2Ev,"axG",@progbits,_ZNSt7__cxx1112basic_stringIcSt11char_traitsIcESaIcEE12_Alloc_hiderD5Ev,comdat
	.align 2
	.weak	_ZNSt7__cxx1112basic_stringIcSt11char_traitsIcESaIcEE12_Alloc_hiderD2Ev
	.type	_ZNSt7__cxx1112basic_stringIcSt11char_traitsIcESaIcEE12_Alloc_hiderD2Ev, @function
_ZNSt7__cxx1112basic_stringIcSt11char_traitsIcESaIcEE12_Alloc_hiderD2Ev:
.LFB5129:
	.cfi_startproc
	endbr64
	pushq	%rbp
	.cfi_def_cfa_offset 16
	.cfi_offset 6, -16
	movq	%rsp, %rbp
	.cfi_def_cfa_register 6
	subq	$16, %rsp
	movq	%rdi, -8(%rbp)
	movq	-8(%rbp), %rax
	movq	%rax, %rdi
	call	_ZNSaIcED2Ev@PLT
	nop
	leave
	.cfi_def_cfa 7, 8
	ret
	.cfi_endproc
.LFE5129:
	.size	_ZNSt7__cxx1112basic_stringIcSt11char_traitsIcESaIcEE12_Alloc_hiderD2Ev, .-_ZNSt7__cxx1112basic_stringIcSt11char_traitsIcESaIcEE12_Alloc_hiderD2Ev
	.weak	_ZNSt7__cxx1112basic_stringIcSt11char_traitsIcESaIcEE12_Alloc_hiderD1Ev
	.set	_ZNSt7__cxx1112basic_stringIcSt11char_traitsIcESaIcEE12_Alloc_hiderD1Ev,_ZNSt7__cxx1112basic_stringIcSt11char_traitsIcESaIcEE12_Alloc_hiderD2Ev
	.section	.text._ZNSt7__cxx1112basic_stringIcSt11char_traitsIcESaIcEEC2IS3_EEmcRKS3_,"axG",@progbits,_ZNSt7__cxx1112basic_stringIcSt11char_traitsIcESaIcEEC5IS3_EEmcRKS3_,comdat
	.align 2
	.weak	_ZNSt7__cxx1112basic_stringIcSt11char_traitsIcESaIcEEC2IS3_EEmcRKS3_
	.type	_ZNSt7__cxx1112basic_stringIcSt11char_traitsIcESaIcEEC2IS3_EEmcRKS3_, @function
_ZNSt7__cxx1112basic_stringIcSt11char_traitsIcESaIcEEC2IS3_EEmcRKS3_:
.LFB5131:
	.cfi_startproc
	.cfi_personality 0x9b,DW.ref.__gxx_personality_v0
	.cfi_lsda 0x1b,.LLSDA5131
	endbr64
	pushq	%rbp
	.cfi_def_cfa_offset 16
	.cfi_offset 6, -16
	movq	%rsp, %rbp
	.cfi_def_cfa_register 6
	pushq	%rbx
	subq	$40, %rsp
	.cfi_offset 3, -24
	movq	%rdi, -24(%rbp)
	movq	%rsi, -32(%rbp)
	movl	%edx, %eax
	movq	%rcx, -48(%rbp)
	movb	%al, -36(%rbp)
	movq	-24(%rbp), %rbx
	movq	-24(%rbp), %rax
	movq	%rax, %rdi
.LEHB73:
	call	_ZNSt7__cxx1112basic_stringIcSt11char_traitsIcESaIcEE13_M_local_dataEv@PLT
	movq	%rax, %rcx
	movq	-48(%rbp), %rax
	movq	%rax, %rdx
	movq	%rcx, %rsi
	movq	%rbx, %rdi
	call	_ZNSt7__cxx1112basic_stringIcSt11char_traitsIcESaIcEE12_Alloc_hiderC1EPcRKS3_@PLT
.LEHE73:
	movsbl	-36(%rbp), %edx
	movq	-32(%rbp), %rcx
	movq	-24(%rbp), %rax
	movq	%rcx, %rsi
	movq	%rax, %rdi
.LEHB74:
	call	_ZNSt7__cxx1112basic_stringIcSt11char_traitsIcESaIcEE12_M_constructEmc@PLT
.LEHE74:
	jmp	.L365
.L364:
	endbr64
	movq	%rax, %rbx
	movq	-24(%rbp), %rax
	movq	%rax, %rdi
	call	_ZNSt7__cxx1112basic_stringIcSt11char_traitsIcESaIcEE12_Alloc_hiderD1Ev
	movq	%rbx, %rax
	movq	%rax, %rdi
.LEHB75:
	call	_Unwind_Resume@PLT
.LEHE75:
.L365:
	movq	-8(%rbp), %rbx
	leave
	.cfi_def_cfa 7, 8
	ret
	.cfi_endproc
.LFE5131:
	.section	.gcc_except_table
.LLSDA5131:
	.byte	0xff
	.byte	0xff
	.byte	0x1
	.uleb128 .LLSDACSE5131-.LLSDACSB5131
.LLSDACSB5131:
	.uleb128 .LEHB73-.LFB5131
	.uleb128 .LEHE73-.LEHB73
	.uleb128 0
	.uleb128 0
	.uleb128 .LEHB74-.LFB5131
	.uleb128 .LEHE74-.LEHB74
	.uleb128 .L364-.LFB5131
	.uleb128 0
	.uleb128 .LEHB75-.LFB5131
	.uleb128 .LEHE75-.LEHB75
	.uleb128 0
	.uleb128 0
.LLSDACSE5131:
	.section	.text._ZNSt7__cxx1112basic_stringIcSt11char_traitsIcESaIcEEC2IS3_EEmcRKS3_,"axG",@progbits,_ZNSt7__cxx1112basic_stringIcSt11char_traitsIcESaIcEEC5IS3_EEmcRKS3_,comdat
	.size	_ZNSt7__cxx1112basic_stringIcSt11char_traitsIcESaIcEEC2IS3_EEmcRKS3_, .-_ZNSt7__cxx1112basic_stringIcSt11char_traitsIcESaIcEEC2IS3_EEmcRKS3_
	.weak	_ZNSt7__cxx1112basic_stringIcSt11char_traitsIcESaIcEEC1IS3_EEmcRKS3_
	.set	_ZNSt7__cxx1112basic_stringIcSt11char_traitsIcESaIcEEC1IS3_EEmcRKS3_,_ZNSt7__cxx1112basic_stringIcSt11char_traitsIcESaIcEEC2IS3_EEmcRKS3_
	.weak	_ZZNSt8__detail18__to_chars_10_implIjEEvPcjT_E8__digits
	.section	.rodata._ZZNSt8__detail18__to_chars_10_implIjEEvPcjT_E8__digits,"aG",@progbits,_ZZNSt8__detail18__to_chars_10_implIjEEvPcjT_E8__digits,comdat
	.align 32
	.type	_ZZNSt8__detail18__to_chars_10_implIjEEvPcjT_E8__digits, @gnu_unique_object
	.size	_ZZNSt8__detail18__to_chars_10_implIjEEvPcjT_E8__digits, 201
_ZZNSt8__detail18__to_chars_10_implIjEEvPcjT_E8__digits:
	.string	"00010203040506070809101112131415161718192021222324252627282930313233343536373839404142434445464748495051525354555657585960616263646566676869707172737475767778798081828384858687888990919293949596979899"
	.section	.text._ZNSt8__detail18__to_chars_10_implIjEEvPcjT_,"axG",@progbits,_ZNSt8__detail18__to_chars_10_implIjEEvPcjT_,comdat
	.weak	_ZNSt8__detail18__to_chars_10_implIjEEvPcjT_
	.type	_ZNSt8__detail18__to_chars_10_implIjEEvPcjT_, @function
_ZNSt8__detail18__to_chars_10_implIjEEvPcjT_:
.LFB5137:
	.cfi_startproc
	endbr64
	pushq	%rbp
	.cfi_def_cfa_offset 16
	.cfi_offset 6, -16
	movq	%rsp, %rbp
	.cfi_def_cfa_register 6
	movq	%rdi, -24(%rbp)
	movl	%esi, -28(%rbp)
	movl	%edx, -32(%rbp)
	movl	-28(%rbp), %eax
	subl	$1, %eax
	movl	%eax, -12(%rbp)
	jmp	.L367
.L368:
	movl	-32(%rbp), %edx
	movl	%edx, %eax
	imulq	$1374389535, %rax, %rax
	shrq	$32, %rax
	shrl	$5, %eax
	imull	$100, %eax, %ecx
	movl	%edx, %eax
	subl	%ecx, %eax
	addl	%eax, %eax
	movl	%eax, -4(%rbp)
	movl	-32(%rbp), %eax
	movl	%eax, %eax
	imulq	$1374389535, %rax, %rax
	shrq	$32, %rax
	shrl	$5, %eax
	movl	%eax, -32(%rbp)
	movl	-4(%rbp), %eax
	leal	1(%rax), %ecx
	movl	-12(%rbp), %edx
	movq	-24(%rbp), %rax
	addq	%rax, %rdx
	movl	%ecx, %ecx
	leaq	_ZZNSt8__detail18__to_chars_10_implIjEEvPcjT_E8__digits(%rip), %rax
	movzbl	(%rcx,%rax), %eax
	movb	%al, (%rdx)
	movl	-12(%rbp), %eax
	subl	$1, %eax
	movl	%eax, %edx
	movq	-24(%rbp), %rax
	addq	%rax, %rdx
	movl	-4(%rbp), %eax
	leaq	_ZZNSt8__detail18__to_chars_10_implIjEEvPcjT_E8__digits(%rip), %rcx
	movzbl	(%rax,%rcx), %eax
	movb	%al, (%rdx)
	subl	$2, -12(%rbp)
.L367:
	cmpl	$99, -32(%rbp)
	ja	.L368
	cmpl	$9, -32(%rbp)
	jbe	.L369
	movl	-32(%rbp), %eax
	addl	%eax, %eax
	movl	%eax, -8(%rbp)
	movl	-8(%rbp), %eax
	leal	1(%rax), %ecx
	movq	-24(%rbp), %rax
	leaq	1(%rax), %rdx
	movl	%ecx, %ecx
	leaq	_ZZNSt8__detail18__to_chars_10_implIjEEvPcjT_E8__digits(%rip), %rax
	movzbl	(%rcx,%rax), %eax
	movb	%al, (%rdx)
	movl	-8(%rbp), %eax
	leaq	_ZZNSt8__detail18__to_chars_10_implIjEEvPcjT_E8__digits(%rip), %rdx
	movzbl	(%rax,%rdx), %edx
	movq	-24(%rbp), %rax
	movb	%dl, (%rax)
	jmp	.L371
.L369:
	movl	-32(%rbp), %eax
	addl	$48, %eax
	movl	%eax, %edx
	movq	-24(%rbp), %rax
	movb	%dl, (%rax)
.L371:
	nop
	popq	%rbp
	.cfi_def_cfa 7, 8
	ret
	.cfi_endproc
.LFE5137:
	.size	_ZNSt8__detail18__to_chars_10_implIjEEvPcjT_, .-_ZNSt8__detail18__to_chars_10_implIjEEvPcjT_
	.section	.text._ZNSt22_Optional_payload_baseINSt7__cxx1112basic_stringIcSt11char_traitsIcESaIcEEEE8_StorageIS5_Lb0EEC2Ev,"axG",@progbits,_ZNSt22_Optional_payload_baseINSt7__cxx1112basic_stringIcSt11char_traitsIcESaIcEEEE8_StorageIS5_Lb0EEC5Ev,comdat
	.align 2
	.weak	_ZNSt22_Optional_payload_baseINSt7__cxx1112basic_stringIcSt11char_traitsIcESaIcEEEE8_StorageIS5_Lb0EEC2Ev
	.type	_ZNSt22_Optional_payload_baseINSt7__cxx1112basic_stringIcSt11char_traitsIcESaIcEEEE8_StorageIS5_Lb0EEC2Ev, @function
_ZNSt22_Optional_payload_baseINSt7__cxx1112basic_stringIcSt11char_traitsIcESaIcEEEE8_StorageIS5_Lb0EEC2Ev:
.LFB5281:
	.cfi_startproc
	endbr64
	pushq	%rbp
	.cfi_def_cfa_offset 16
	.cfi_offset 6, -16
	movq	%rsp, %rbp
	.cfi_def_cfa_register 6
	movq	%rdi, -8(%rbp)
	nop
	popq	%rbp
	.cfi_def_cfa 7, 8
	ret
	.cfi_endproc
.LFE5281:
	.size	_ZNSt22_Optional_payload_baseINSt7__cxx1112basic_stringIcSt11char_traitsIcESaIcEEEE8_StorageIS5_Lb0EEC2Ev, .-_ZNSt22_Optional_payload_baseINSt7__cxx1112basic_stringIcSt11char_traitsIcESaIcEEEE8_StorageIS5_Lb0EEC2Ev
	.weak	_ZNSt22_Optional_payload_baseINSt7__cxx1112basic_stringIcSt11char_traitsIcESaIcEEEE8_StorageIS5_Lb0EEC1Ev
	.set	_ZNSt22_Optional_payload_baseINSt7__cxx1112basic_stringIcSt11char_traitsIcESaIcEEEE8_StorageIS5_Lb0EEC1Ev,_ZNSt22_Optional_payload_baseINSt7__cxx1112basic_stringIcSt11char_traitsIcESaIcEEEE8_StorageIS5_Lb0EEC2Ev
	.section	.text._ZNSt22_Optional_payload_baseINSt7__cxx1112basic_stringIcSt11char_traitsIcESaIcEEEEC2Ev,"axG",@progbits,_ZNSt22_Optional_payload_baseINSt7__cxx1112basic_stringIcSt11char_traitsIcESaIcEEEEC5Ev,comdat
	.align 2
	.weak	_ZNSt22_Optional_payload_baseINSt7__cxx1112basic_stringIcSt11char_traitsIcESaIcEEEEC2Ev
	.type	_ZNSt22_Optional_payload_baseINSt7__cxx1112basic_stringIcSt11char_traitsIcESaIcEEEEC2Ev, @function
_ZNSt22_Optional_payload_baseINSt7__cxx1112basic_stringIcSt11char_traitsIcESaIcEEEEC2Ev:
.LFB5283:
	.cfi_startproc
	endbr64
	pushq	%rbp
	.cfi_def_cfa_offset 16
	.cfi_offset 6, -16
	movq	%rsp, %rbp
	.cfi_def_cfa_register 6
	subq	$16, %rsp
	movq	%rdi, -8(%rbp)
	movq	-8(%rbp), %rax
	movq	%rax, %rdi
	call	_ZNSt22_Optional_payload_baseINSt7__cxx1112basic_stringIcSt11char_traitsIcESaIcEEEE8_StorageIS5_Lb0EEC1Ev
	movq	-8(%rbp), %rax
	movb	$0, 32(%rax)
	nop
	leave
	.cfi_def_cfa 7, 8
	ret
	.cfi_endproc
.LFE5283:
	.size	_ZNSt22_Optional_payload_baseINSt7__cxx1112basic_stringIcSt11char_traitsIcESaIcEEEEC2Ev, .-_ZNSt22_Optional_payload_baseINSt7__cxx1112basic_stringIcSt11char_traitsIcESaIcEEEEC2Ev
	.weak	_ZNSt22_Optional_payload_baseINSt7__cxx1112basic_stringIcSt11char_traitsIcESaIcEEEEC1Ev
	.set	_ZNSt22_Optional_payload_baseINSt7__cxx1112basic_stringIcSt11char_traitsIcESaIcEEEEC1Ev,_ZNSt22_Optional_payload_baseINSt7__cxx1112basic_stringIcSt11char_traitsIcESaIcEEEEC2Ev
	.section	.text._ZNSt22_Optional_payload_baseINSt7__cxx1112basic_stringIcSt11char_traitsIcESaIcEEEED2Ev,"axG",@progbits,_ZNSt22_Optional_payload_baseINSt7__cxx1112basic_stringIcSt11char_traitsIcESaIcEEEED5Ev,comdat
	.align 2
	.weak	_ZNSt22_Optional_payload_baseINSt7__cxx1112basic_stringIcSt11char_traitsIcESaIcEEEED2Ev
	.type	_ZNSt22_Optional_payload_baseINSt7__cxx1112basic_stringIcSt11char_traitsIcESaIcEEEED2Ev, @function
_ZNSt22_Optional_payload_baseINSt7__cxx1112basic_stringIcSt11char_traitsIcESaIcEEEED2Ev:
.LFB5286:
	.cfi_startproc
	endbr64
	pushq	%rbp
	.cfi_def_cfa_offset 16
	.cfi_offset 6, -16
	movq	%rsp, %rbp
	.cfi_def_cfa_register 6
	subq	$16, %rsp
	movq	%rdi, -8(%rbp)
	movq	-8(%rbp), %rax
	movq	%rax, %rdi
	call	_ZNSt22_Optional_payload_baseINSt7__cxx1112basic_stringIcSt11char_traitsIcESaIcEEEE8_StorageIS5_Lb0EED1Ev
	nop
	leave
	.cfi_def_cfa 7, 8
	ret
	.cfi_endproc
.LFE5286:
	.size	_ZNSt22_Optional_payload_baseINSt7__cxx1112basic_stringIcSt11char_traitsIcESaIcEEEED2Ev, .-_ZNSt22_Optional_payload_baseINSt7__cxx1112basic_stringIcSt11char_traitsIcESaIcEEEED2Ev
	.weak	_ZNSt22_Optional_payload_baseINSt7__cxx1112basic_stringIcSt11char_traitsIcESaIcEEEED1Ev
	.set	_ZNSt22_Optional_payload_baseINSt7__cxx1112basic_stringIcSt11char_traitsIcESaIcEEEED1Ev,_ZNSt22_Optional_payload_baseINSt7__cxx1112basic_stringIcSt11char_traitsIcESaIcEEEED2Ev
	.section	.text._ZNSt17_Optional_payloadINSt7__cxx1112basic_stringIcSt11char_traitsIcESaIcEEELb1ELb0ELb0EEC2Ev,"axG",@progbits,_ZNSt17_Optional_payloadINSt7__cxx1112basic_stringIcSt11char_traitsIcESaIcEEELb1ELb0ELb0EEC5Ev,comdat
	.align 2
	.weak	_ZNSt17_Optional_payloadINSt7__cxx1112basic_stringIcSt11char_traitsIcESaIcEEELb1ELb0ELb0EEC2Ev
	.type	_ZNSt17_Optional_payloadINSt7__cxx1112basic_stringIcSt11char_traitsIcESaIcEEELb1ELb0ELb0EEC2Ev, @function
_ZNSt17_Optional_payloadINSt7__cxx1112basic_stringIcSt11char_traitsIcESaIcEEELb1ELb0ELb0EEC2Ev:
.LFB5288:
	.cfi_startproc
	endbr64
	pushq	%rbp
	.cfi_def_cfa_offset 16
	.cfi_offset 6, -16
	movq	%rsp, %rbp
	.cfi_def_cfa_register 6
	subq	$16, %rsp
	movq	%rdi, -8(%rbp)
	movq	-8(%rbp), %rax
	movq	%rax, %rdi
	call	_ZNSt22_Optional_payload_baseINSt7__cxx1112basic_stringIcSt11char_traitsIcESaIcEEEEC2Ev
	nop
	leave
	.cfi_def_cfa 7, 8
	ret
	.cfi_endproc
.LFE5288:
	.size	_ZNSt17_Optional_payloadINSt7__cxx1112basic_stringIcSt11char_traitsIcESaIcEEELb1ELb0ELb0EEC2Ev, .-_ZNSt17_Optional_payloadINSt7__cxx1112basic_stringIcSt11char_traitsIcESaIcEEELb1ELb0ELb0EEC2Ev
	.weak	_ZNSt17_Optional_payloadINSt7__cxx1112basic_stringIcSt11char_traitsIcESaIcEEELb1ELb0ELb0EEC1Ev
	.set	_ZNSt17_Optional_payloadINSt7__cxx1112basic_stringIcSt11char_traitsIcESaIcEEELb1ELb0ELb0EEC1Ev,_ZNSt17_Optional_payloadINSt7__cxx1112basic_stringIcSt11char_traitsIcESaIcEEELb1ELb0ELb0EEC2Ev
	.section	.text._ZNSt17_Optional_payloadINSt7__cxx1112basic_stringIcSt11char_traitsIcESaIcEEELb1ELb0ELb0EED2Ev,"axG",@progbits,_ZNSt17_Optional_payloadINSt7__cxx1112basic_stringIcSt11char_traitsIcESaIcEEELb1ELb0ELb0EED5Ev,comdat
	.align 2
	.weak	_ZNSt17_Optional_payloadINSt7__cxx1112basic_stringIcSt11char_traitsIcESaIcEEELb1ELb0ELb0EED2Ev
	.type	_ZNSt17_Optional_payloadINSt7__cxx1112basic_stringIcSt11char_traitsIcESaIcEEELb1ELb0ELb0EED2Ev, @function
_ZNSt17_Optional_payloadINSt7__cxx1112basic_stringIcSt11char_traitsIcESaIcEEELb1ELb0ELb0EED2Ev:
.LFB5291:
	.cfi_startproc
	endbr64
	pushq	%rbp
	.cfi_def_cfa_offset 16
	.cfi_offset 6, -16
	movq	%rsp, %rbp
	.cfi_def_cfa_register 6
	subq	$16, %rsp
	movq	%rdi, -8(%rbp)
	movq	-8(%rbp), %rax
	movq	%rax, %rdi
	call	_ZNSt22_Optional_payload_baseINSt7__cxx1112basic_stringIcSt11char_traitsIcESaIcEEEED2Ev
	nop
	leave
	.cfi_def_cfa 7, 8
	ret
	.cfi_endproc
.LFE5291:
	.size	_ZNSt17_Optional_payloadINSt7__cxx1112basic_stringIcSt11char_traitsIcESaIcEEELb1ELb0ELb0EED2Ev, .-_ZNSt17_Optional_payloadINSt7__cxx1112basic_stringIcSt11char_traitsIcESaIcEEELb1ELb0ELb0EED2Ev
	.weak	_ZNSt17_Optional_payloadINSt7__cxx1112basic_stringIcSt11char_traitsIcESaIcEEELb1ELb0ELb0EED1Ev
	.set	_ZNSt17_Optional_payloadINSt7__cxx1112basic_stringIcSt11char_traitsIcESaIcEEELb1ELb0ELb0EED1Ev,_ZNSt17_Optional_payloadINSt7__cxx1112basic_stringIcSt11char_traitsIcESaIcEEELb1ELb0ELb0EED2Ev
	.section	.text._ZNSt17_Optional_payloadINSt7__cxx1112basic_stringIcSt11char_traitsIcESaIcEEELb0ELb0ELb0EEC2Ev,"axG",@progbits,_ZNSt17_Optional_payloadINSt7__cxx1112basic_stringIcSt11char_traitsIcESaIcEEELb0ELb0ELb0EEC5Ev,comdat
	.align 2
	.weak	_ZNSt17_Optional_payloadINSt7__cxx1112basic_stringIcSt11char_traitsIcESaIcEEELb0ELb0ELb0EEC2Ev
	.type	_ZNSt17_Optional_payloadINSt7__cxx1112basic_stringIcSt11char_traitsIcESaIcEEELb0ELb0ELb0EEC2Ev, @function
_ZNSt17_Optional_payloadINSt7__cxx1112basic_stringIcSt11char_traitsIcESaIcEEELb0ELb0ELb0EEC2Ev:
.LFB5293:
	.cfi_startproc
	endbr64
	pushq	%rbp
	.cfi_def_cfa_offset 16
	.cfi_offset 6, -16
	movq	%rsp, %rbp
	.cfi_def_cfa_register 6
	subq	$16, %rsp
	movq	%rdi, -8(%rbp)
	movq	-8(%rbp), %rax
	movq	%rax, %rdi
	call	_ZNSt17_Optional_payloadINSt7__cxx1112basic_stringIcSt11char_traitsIcESaIcEEELb1ELb0ELb0EEC2Ev
	nop
	leave
	.cfi_def_cfa 7, 8
	ret
	.cfi_endproc
.LFE5293:
	.size	_ZNSt17_Optional_payloadINSt7__cxx1112basic_stringIcSt11char_traitsIcESaIcEEELb0ELb0ELb0EEC2Ev, .-_ZNSt17_Optional_payloadINSt7__cxx1112basic_stringIcSt11char_traitsIcESaIcEEELb0ELb0ELb0EEC2Ev
	.weak	_ZNSt17_Optional_payloadINSt7__cxx1112basic_stringIcSt11char_traitsIcESaIcEEELb0ELb0ELb0EEC1Ev
	.set	_ZNSt17_Optional_payloadINSt7__cxx1112basic_stringIcSt11char_traitsIcESaIcEEELb0ELb0ELb0EEC1Ev,_ZNSt17_Optional_payloadINSt7__cxx1112basic_stringIcSt11char_traitsIcESaIcEEELb0ELb0ELb0EEC2Ev
	.section	.text._ZNSt14_Optional_baseINSt7__cxx1112basic_stringIcSt11char_traitsIcESaIcEEELb0ELb0EEC2Ev,"axG",@progbits,_ZNSt14_Optional_baseINSt7__cxx1112basic_stringIcSt11char_traitsIcESaIcEEELb0ELb0EEC5Ev,comdat
	.align 2
	.weak	_ZNSt14_Optional_baseINSt7__cxx1112basic_stringIcSt11char_traitsIcESaIcEEELb0ELb0EEC2Ev
	.type	_ZNSt14_Optional_baseINSt7__cxx1112basic_stringIcSt11char_traitsIcESaIcEEELb0ELb0EEC2Ev, @function
_ZNSt14_Optional_baseINSt7__cxx1112basic_stringIcSt11char_traitsIcESaIcEEELb0ELb0EEC2Ev:
.LFB5295:
	.cfi_startproc
	endbr64
	pushq	%rbp
	.cfi_def_cfa_offset 16
	.cfi_offset 6, -16
	movq	%rsp, %rbp
	.cfi_def_cfa_register 6
	subq	$16, %rsp
	movq	%rdi, -8(%rbp)
	movq	-8(%rbp), %rax
	movq	%rax, %rdi
	call	_ZNSt17_Optional_payloadINSt7__cxx1112basic_stringIcSt11char_traitsIcESaIcEEELb0ELb0ELb0EEC1Ev
	nop
	leave
	.cfi_def_cfa 7, 8
	ret
	.cfi_endproc
.LFE5295:
	.size	_ZNSt14_Optional_baseINSt7__cxx1112basic_stringIcSt11char_traitsIcESaIcEEELb0ELb0EEC2Ev, .-_ZNSt14_Optional_baseINSt7__cxx1112basic_stringIcSt11char_traitsIcESaIcEEELb0ELb0EEC2Ev
	.weak	_ZNSt14_Optional_baseINSt7__cxx1112basic_stringIcSt11char_traitsIcESaIcEEELb0ELb0EEC1Ev
	.set	_ZNSt14_Optional_baseINSt7__cxx1112basic_stringIcSt11char_traitsIcESaIcEEELb0ELb0EEC1Ev,_ZNSt14_Optional_baseINSt7__cxx1112basic_stringIcSt11char_traitsIcESaIcEEELb0ELb0EEC2Ev
	.section	.text._ZNSt8optionalINSt7__cxx1112basic_stringIcSt11char_traitsIcESaIcEEEEC2ESt9nullopt_t,"axG",@progbits,_ZNSt8optionalINSt7__cxx1112basic_stringIcSt11char_traitsIcESaIcEEEEC5ESt9nullopt_t,comdat
	.align 2
	.weak	_ZNSt8optionalINSt7__cxx1112basic_stringIcSt11char_traitsIcESaIcEEEEC2ESt9nullopt_t
	.type	_ZNSt8optionalINSt7__cxx1112basic_stringIcSt11char_traitsIcESaIcEEEEC2ESt9nullopt_t, @function
_ZNSt8optionalINSt7__cxx1112basic_stringIcSt11char_traitsIcESaIcEEEEC2ESt9nullopt_t:
.LFB5297:
	.cfi_startproc
	endbr64
	pushq	%rbp
	.cfi_def_cfa_offset 16
	.cfi_offset 6, -16
	movq	%rsp, %rbp
	.cfi_def_cfa_register 6
	subq	$16, %rsp
	movq	%rdi, -8(%rbp)
	movq	-8(%rbp), %rax
	movq	%rax, %rdi
	call	_ZNSt14_Optional_baseINSt7__cxx1112basic_stringIcSt11char_traitsIcESaIcEEELb0ELb0EEC2Ev
	nop
	leave
	.cfi_def_cfa 7, 8
	ret
	.cfi_endproc
.LFE5297:
	.size	_ZNSt8optionalINSt7__cxx1112basic_stringIcSt11char_traitsIcESaIcEEEEC2ESt9nullopt_t, .-_ZNSt8optionalINSt7__cxx1112basic_stringIcSt11char_traitsIcESaIcEEEEC2ESt9nullopt_t
	.weak	_ZNSt8optionalINSt7__cxx1112basic_stringIcSt11char_traitsIcESaIcEEEEC1ESt9nullopt_t
	.set	_ZNSt8optionalINSt7__cxx1112basic_stringIcSt11char_traitsIcESaIcEEEEC1ESt9nullopt_t,_ZNSt8optionalINSt7__cxx1112basic_stringIcSt11char_traitsIcESaIcEEEEC2ESt9nullopt_t
	.section	.text._ZNSt17_Optional_payloadINSt7__cxx1112basic_stringIcSt11char_traitsIcESaIcEEELb0ELb0ELb0EED2Ev,"axG",@progbits,_ZNSt17_Optional_payloadINSt7__cxx1112basic_stringIcSt11char_traitsIcESaIcEEELb0ELb0ELb0EED5Ev,comdat
	.align 2
	.weak	_ZNSt17_Optional_payloadINSt7__cxx1112basic_stringIcSt11char_traitsIcESaIcEEELb0ELb0ELb0EED2Ev
	.type	_ZNSt17_Optional_payloadINSt7__cxx1112basic_stringIcSt11char_traitsIcESaIcEEELb0ELb0ELb0EED2Ev, @function
_ZNSt17_Optional_payloadINSt7__cxx1112basic_stringIcSt11char_traitsIcESaIcEEELb0ELb0ELb0EED2Ev:
.LFB5300:
	.cfi_startproc
	endbr64
	pushq	%rbp
	.cfi_def_cfa_offset 16
	.cfi_offset 6, -16
	movq	%rsp, %rbp
	.cfi_def_cfa_register 6
	subq	$16, %rsp
	movq	%rdi, -8(%rbp)
	movq	-8(%rbp), %rax
	movq	%rax, %rdi
	call	_ZNSt22_Optional_payload_baseINSt7__cxx1112basic_stringIcSt11char_traitsIcESaIcEEEE8_M_resetEv
	movq	-8(%rbp), %rax
	movq	%rax, %rdi
	call	_ZNSt17_Optional_payloadINSt7__cxx1112basic_stringIcSt11char_traitsIcESaIcEEELb1ELb0ELb0EED2Ev
	nop
	leave
	.cfi_def_cfa 7, 8
	ret
	.cfi_endproc
.LFE5300:
	.size	_ZNSt17_Optional_payloadINSt7__cxx1112basic_stringIcSt11char_traitsIcESaIcEEELb0ELb0ELb0EED2Ev, .-_ZNSt17_Optional_payloadINSt7__cxx1112basic_stringIcSt11char_traitsIcESaIcEEELb0ELb0ELb0EED2Ev
	.weak	_ZNSt17_Optional_payloadINSt7__cxx1112basic_stringIcSt11char_traitsIcESaIcEEELb0ELb0ELb0EED1Ev
	.set	_ZNSt17_Optional_payloadINSt7__cxx1112basic_stringIcSt11char_traitsIcESaIcEEELb0ELb0ELb0EED1Ev,_ZNSt17_Optional_payloadINSt7__cxx1112basic_stringIcSt11char_traitsIcESaIcEEELb0ELb0ELb0EED2Ev
	.section	.text._ZNSt8optionalINSt7__cxx1112basic_stringIcSt11char_traitsIcESaIcEEEEC2IRPKcLb1EEEOT_,"axG",@progbits,_ZNSt8optionalINSt7__cxx1112basic_stringIcSt11char_traitsIcESaIcEEEEC5IRPKcLb1EEEOT_,comdat
	.align 2
	.weak	_ZNSt8optionalINSt7__cxx1112basic_stringIcSt11char_traitsIcESaIcEEEEC2IRPKcLb1EEEOT_
	.type	_ZNSt8optionalINSt7__cxx1112basic_stringIcSt11char_traitsIcESaIcEEEEC2IRPKcLb1EEEOT_, @function
_ZNSt8optionalINSt7__cxx1112basic_stringIcSt11char_traitsIcESaIcEEEEC2IRPKcLb1EEEOT_:
.LFB5303:
	.cfi_startproc
	endbr64
	pushq	%rbp
	.cfi_def_cfa_offset 16
	.cfi_offset 6, -16
	movq	%rsp, %rbp
	.cfi_def_cfa_register 6
	pushq	%rbx
	subq	$24, %rsp
	.cfi_offset 3, -24
	movq	%rdi, -24(%rbp)
	movq	%rsi, -32(%rbp)
	movq	-24(%rbp), %rbx
	movq	-32(%rbp), %rax
	movq	%rax, %rdi
	call	_ZSt7forwardIRPKcEOT_RNSt16remove_referenceIS3_E4typeE
	movq	%rax, %rsi
	movq	%rbx, %rdi
	call	_ZNSt14_Optional_baseINSt7__cxx1112basic_stringIcSt11char_traitsIcESaIcEEELb0ELb0EEC2IJRPKcELb0EEESt10in_place_tDpOT_
	nop
	movq	-8(%rbp), %rbx
	leave
	.cfi_def_cfa 7, 8
	ret
	.cfi_endproc
.LFE5303:
	.size	_ZNSt8optionalINSt7__cxx1112basic_stringIcSt11char_traitsIcESaIcEEEEC2IRPKcLb1EEEOT_, .-_ZNSt8optionalINSt7__cxx1112basic_stringIcSt11char_traitsIcESaIcEEEEC2IRPKcLb1EEEOT_
	.weak	_ZNSt8optionalINSt7__cxx1112basic_stringIcSt11char_traitsIcESaIcEEEEC1IRPKcLb1EEEOT_
	.set	_ZNSt8optionalINSt7__cxx1112basic_stringIcSt11char_traitsIcESaIcEEEEC1IRPKcLb1EEEOT_,_ZNSt8optionalINSt7__cxx1112basic_stringIcSt11char_traitsIcESaIcEEEEC2IRPKcLb1EEEOT_
	.section	.text._ZNSt8optionalINSt7__cxx1112basic_stringIcSt11char_traitsIcESaIcEEEEC2IRKS5_Lb1EEEOT_,"axG",@progbits,_ZNSt8optionalINSt7__cxx1112basic_stringIcSt11char_traitsIcESaIcEEEEC5IRKS5_Lb1EEEOT_,comdat
	.align 2
	.weak	_ZNSt8optionalINSt7__cxx1112basic_stringIcSt11char_traitsIcESaIcEEEEC2IRKS5_Lb1EEEOT_
	.type	_ZNSt8optionalINSt7__cxx1112basic_stringIcSt11char_traitsIcESaIcEEEEC2IRKS5_Lb1EEEOT_, @function
_ZNSt8optionalINSt7__cxx1112basic_stringIcSt11char_traitsIcESaIcEEEEC2IRKS5_Lb1EEEOT_:
.LFB5306:
	.cfi_startproc
	endbr64
	pushq	%rbp
	.cfi_def_cfa_offset 16
	.cfi_offset 6, -16
	movq	%rsp, %rbp
	.cfi_def_cfa_register 6
	pushq	%rbx
	subq	$24, %rsp
	.cfi_offset 3, -24
	movq	%rdi, -24(%rbp)
	movq	%rsi, -32(%rbp)
	movq	-24(%rbp), %rbx
	movq	-32(%rbp), %rax
	movq	%rax, %rdi
	call	_ZSt7forwardIRKNSt7__cxx1112basic_stringIcSt11char_traitsIcESaIcEEEEOT_RNSt16remove_referenceIS8_E4typeE
	movq	%rax, %rsi
	movq	%rbx, %rdi
	call	_ZNSt14_Optional_baseINSt7__cxx1112basic_stringIcSt11char_traitsIcESaIcEEELb0ELb0EEC2IJRKS5_ELb0EEESt10in_place_tDpOT_
	nop
	movq	-8(%rbp), %rbx
	leave
	.cfi_def_cfa 7, 8
	ret
	.cfi_endproc
.LFE5306:
	.size	_ZNSt8optionalINSt7__cxx1112basic_stringIcSt11char_traitsIcESaIcEEEEC2IRKS5_Lb1EEEOT_, .-_ZNSt8optionalINSt7__cxx1112basic_stringIcSt11char_traitsIcESaIcEEEEC2IRKS5_Lb1EEEOT_
	.weak	_ZNSt8optionalINSt7__cxx1112basic_stringIcSt11char_traitsIcESaIcEEEEC1IRKS5_Lb1EEEOT_
	.set	_ZNSt8optionalINSt7__cxx1112basic_stringIcSt11char_traitsIcESaIcEEEEC1IRKS5_Lb1EEEOT_,_ZNSt8optionalINSt7__cxx1112basic_stringIcSt11char_traitsIcESaIcEEEEC2IRKS5_Lb1EEEOT_
	.section	.text._ZSt4moveIRSt8optionalINSt7__cxx1112basic_stringIcSt11char_traitsIcESaIcEEEEEONSt16remove_referenceIT_E4typeEOSA_,"axG",@progbits,_ZSt4moveIRSt8optionalINSt7__cxx1112basic_stringIcSt11char_traitsIcESaIcEEEEEONSt16remove_referenceIT_E4typeEOSA_,comdat
	.weak	_ZSt4moveIRSt8optionalINSt7__cxx1112basic_stringIcSt11char_traitsIcESaIcEEEEEONSt16remove_referenceIT_E4typeEOSA_
	.type	_ZSt4moveIRSt8optionalINSt7__cxx1112basic_stringIcSt11char_traitsIcESaIcEEEEEONSt16remove_referenceIT_E4typeEOSA_, @function
_ZSt4moveIRSt8optionalINSt7__cxx1112basic_stringIcSt11char_traitsIcESaIcEEEEEONSt16remove_referenceIT_E4typeEOSA_:
.LFB5308:
	.cfi_startproc
	endbr64
	pushq	%rbp
	.cfi_def_cfa_offset 16
	.cfi_offset 6, -16
	movq	%rsp, %rbp
	.cfi_def_cfa_register 6
	movq	%rdi, -8(%rbp)
	movq	-8(%rbp), %rax
	popq	%rbp
	.cfi_def_cfa 7, 8
	ret
	.cfi_endproc
.LFE5308:
	.size	_ZSt4moveIRSt8optionalINSt7__cxx1112basic_stringIcSt11char_traitsIcESaIcEEEEEONSt16remove_referenceIT_E4typeEOSA_, .-_ZSt4moveIRSt8optionalINSt7__cxx1112basic_stringIcSt11char_traitsIcESaIcEEEEEONSt16remove_referenceIT_E4typeEOSA_
	.section	.text._ZNSt17_Optional_payloadINSt7__cxx1112basic_stringIcSt11char_traitsIcESaIcEEELb1ELb0ELb0EECI2St22_Optional_payload_baseIS5_EEbOS8_,"axG",@progbits,_ZNSt17_Optional_payloadINSt7__cxx1112basic_stringIcSt11char_traitsIcESaIcEEELb1ELb0ELb0EECI5St22_Optional_payload_baseIS5_EEbOS8_,comdat
	.align 2
	.weak	_ZNSt17_Optional_payloadINSt7__cxx1112basic_stringIcSt11char_traitsIcESaIcEEELb1ELb0ELb0EECI2St22_Optional_payload_baseIS5_EEbOS8_
	.type	_ZNSt17_Optional_payloadINSt7__cxx1112basic_stringIcSt11char_traitsIcESaIcEEELb1ELb0ELb0EECI2St22_Optional_payload_baseIS5_EEbOS8_, @function
_ZNSt17_Optional_payloadINSt7__cxx1112basic_stringIcSt11char_traitsIcESaIcEEELb1ELb0ELb0EECI2St22_Optional_payload_baseIS5_EEbOS8_:
.LFB5312:
	.cfi_startproc
	endbr64
	pushq	%rbp
	.cfi_def_cfa_offset 16
	.cfi_offset 6, -16
	movq	%rsp, %rbp
	.cfi_def_cfa_register 6
	subq	$32, %rsp
	movq	%rdi, -8(%rbp)
	movl	%esi, %eax
	movq	%rdx, -24(%rbp)
	movb	%al, -12(%rbp)
	movq	-8(%rbp), %rax
	movzbl	-12(%rbp), %edx
	movzbl	%dl, %ecx
	movq	-24(%rbp), %rdx
	movl	%ecx, %esi
	movq	%rax, %rdi
	call	_ZNSt22_Optional_payload_baseINSt7__cxx1112basic_stringIcSt11char_traitsIcESaIcEEEEC2EbOS6_
	nop
	leave
	.cfi_def_cfa 7, 8
	ret
	.cfi_endproc
.LFE5312:
	.size	_ZNSt17_Optional_payloadINSt7__cxx1112basic_stringIcSt11char_traitsIcESaIcEEELb1ELb0ELb0EECI2St22_Optional_payload_baseIS5_EEbOS8_, .-_ZNSt17_Optional_payloadINSt7__cxx1112basic_stringIcSt11char_traitsIcESaIcEEELb1ELb0ELb0EECI2St22_Optional_payload_baseIS5_EEbOS8_
	.weak	_ZNSt17_Optional_payloadINSt7__cxx1112basic_stringIcSt11char_traitsIcESaIcEEELb1ELb0ELb0EECI1St22_Optional_payload_baseIS5_EEbOS8_
	.set	_ZNSt17_Optional_payloadINSt7__cxx1112basic_stringIcSt11char_traitsIcESaIcEEELb1ELb0ELb0EECI1St22_Optional_payload_baseIS5_EEbOS8_,_ZNSt17_Optional_payloadINSt7__cxx1112basic_stringIcSt11char_traitsIcESaIcEEELb1ELb0ELb0EECI2St22_Optional_payload_baseIS5_EEbOS8_
	.section	.text._ZNSt17_Optional_payloadINSt7__cxx1112basic_stringIcSt11char_traitsIcESaIcEEELb0ELb0ELb0EECI2St22_Optional_payload_baseIS5_EEbOS8_,"axG",@progbits,_ZNSt17_Optional_payloadINSt7__cxx1112basic_stringIcSt11char_traitsIcESaIcEEELb0ELb0ELb0EECI5St22_Optional_payload_baseIS5_EEbOS8_,comdat
	.align 2
	.weak	_ZNSt17_Optional_payloadINSt7__cxx1112basic_stringIcSt11char_traitsIcESaIcEEELb0ELb0ELb0EECI2St22_Optional_payload_baseIS5_EEbOS8_
	.type	_ZNSt17_Optional_payloadINSt7__cxx1112basic_stringIcSt11char_traitsIcESaIcEEELb0ELb0ELb0EECI2St22_Optional_payload_baseIS5_EEbOS8_, @function
_ZNSt17_Optional_payloadINSt7__cxx1112basic_stringIcSt11char_traitsIcESaIcEEELb0ELb0ELb0EECI2St22_Optional_payload_baseIS5_EEbOS8_:
.LFB5314:
	.cfi_startproc
	endbr64
	pushq	%rbp
	.cfi_def_cfa_offset 16
	.cfi_offset 6, -16
	movq	%rsp, %rbp
	.cfi_def_cfa_register 6
	subq	$32, %rsp
	movq	%rdi, -8(%rbp)
	movl	%esi, %eax
	movq	%rdx, -24(%rbp)
	movb	%al, -12(%rbp)
	movq	-8(%rbp), %rax
	movzbl	-12(%rbp), %edx
	movzbl	%dl, %ecx
	movq	-24(%rbp), %rdx
	movl	%ecx, %esi
	movq	%rax, %rdi
	call	_ZNSt17_Optional_payloadINSt7__cxx1112basic_stringIcSt11char_traitsIcESaIcEEELb1ELb0ELb0EECI2St22_Optional_payload_baseIS5_EEbOS8_
	nop
	leave
	.cfi_def_cfa 7, 8
	ret
	.cfi_endproc
.LFE5314:
	.size	_ZNSt17_Optional_payloadINSt7__cxx1112basic_stringIcSt11char_traitsIcESaIcEEELb0ELb0ELb0EECI2St22_Optional_payload_baseIS5_EEbOS8_, .-_ZNSt17_Optional_payloadINSt7__cxx1112basic_stringIcSt11char_traitsIcESaIcEEELb0ELb0ELb0EECI2St22_Optional_payload_baseIS5_EEbOS8_
	.weak	_ZNSt17_Optional_payloadINSt7__cxx1112basic_stringIcSt11char_traitsIcESaIcEEELb0ELb0ELb0EECI1St22_Optional_payload_baseIS5_EEbOS8_
	.set	_ZNSt17_Optional_payloadINSt7__cxx1112basic_stringIcSt11char_traitsIcESaIcEEELb0ELb0ELb0EECI1St22_Optional_payload_baseIS5_EEbOS8_,_ZNSt17_Optional_payloadINSt7__cxx1112basic_stringIcSt11char_traitsIcESaIcEEELb0ELb0ELb0EECI2St22_Optional_payload_baseIS5_EEbOS8_
	.section	.text._ZSt4moveIRSt17_Optional_payloadINSt7__cxx1112basic_stringIcSt11char_traitsIcESaIcEEELb0ELb0ELb0EEEONSt16remove_referenceIT_E4typeEOSA_,"axG",@progbits,_ZSt4moveIRSt17_Optional_payloadINSt7__cxx1112basic_stringIcSt11char_traitsIcESaIcEEELb0ELb0ELb0EEEONSt16remove_referenceIT_E4typeEOSA_,comdat
	.weak	_ZSt4moveIRSt17_Optional_payloadINSt7__cxx1112basic_stringIcSt11char_traitsIcESaIcEEELb0ELb0ELb0EEEONSt16remove_referenceIT_E4typeEOSA_
	.type	_ZSt4moveIRSt17_Optional_payloadINSt7__cxx1112basic_stringIcSt11char_traitsIcESaIcEEELb0ELb0ELb0EEEONSt16remove_referenceIT_E4typeEOSA_, @function
_ZSt4moveIRSt17_Optional_payloadINSt7__cxx1112basic_stringIcSt11char_traitsIcESaIcEEELb0ELb0ELb0EEEONSt16remove_referenceIT_E4typeEOSA_:
.LFB5316:
	.cfi_startproc
	endbr64
	pushq	%rbp
	.cfi_def_cfa_offset 16
	.cfi_offset 6, -16
	movq	%rsp, %rbp
	.cfi_def_cfa_register 6
	movq	%rdi, -8(%rbp)
	movq	-8(%rbp), %rax
	popq	%rbp
	.cfi_def_cfa 7, 8
	ret
	.cfi_endproc
.LFE5316:
	.size	_ZSt4moveIRSt17_Optional_payloadINSt7__cxx1112basic_stringIcSt11char_traitsIcESaIcEEELb0ELb0ELb0EEEONSt16remove_referenceIT_E4typeEOSA_, .-_ZSt4moveIRSt17_Optional_payloadINSt7__cxx1112basic_stringIcSt11char_traitsIcESaIcEEELb0ELb0ELb0EEEONSt16remove_referenceIT_E4typeEOSA_
	.section	.text._ZNSt14_Optional_baseINSt7__cxx1112basic_stringIcSt11char_traitsIcESaIcEEELb0ELb0EEC2EOS6_,"axG",@progbits,_ZNSt14_Optional_baseINSt7__cxx1112basic_stringIcSt11char_traitsIcESaIcEEELb0ELb0EEC5EOS6_,comdat
	.align 2
	.weak	_ZNSt14_Optional_baseINSt7__cxx1112basic_stringIcSt11char_traitsIcESaIcEEELb0ELb0EEC2EOS6_
	.type	_ZNSt14_Optional_baseINSt7__cxx1112basic_stringIcSt11char_traitsIcESaIcEEELb0ELb0EEC2EOS6_, @function
_ZNSt14_Optional_baseINSt7__cxx1112basic_stringIcSt11char_traitsIcESaIcEEELb0ELb0EEC2EOS6_:
.LFB5317:
	.cfi_startproc
	endbr64
	pushq	%rbp
	.cfi_def_cfa_offset 16
	.cfi_offset 6, -16
	movq	%rsp, %rbp
	.cfi_def_cfa_register 6
	pushq	%rbx
	subq	$24, %rsp
	.cfi_offset 3, -24
	movq	%rdi, -24(%rbp)
	movq	%rsi, -32(%rbp)
	movq	-24(%rbp), %rbx
	movq	-32(%rbp), %rax
	movq	%rax, %rdi
	call	_ZSt4moveIRSt17_Optional_payloadINSt7__cxx1112basic_stringIcSt11char_traitsIcESaIcEEELb0ELb0ELb0EEEONSt16remove_referenceIT_E4typeEOSA_
	movq	%rax, %rdx
	movq	-32(%rbp), %rax
	movzbl	32(%rax), %eax
	movzbl	%al, %eax
	movl	%eax, %esi
	movq	%rbx, %rdi
	call	_ZNSt17_Optional_payloadINSt7__cxx1112basic_stringIcSt11char_traitsIcESaIcEEELb0ELb0ELb0EECI1St22_Optional_payload_baseIS5_EEbOS8_
	nop
	movq	-8(%rbp), %rbx
	leave
	.cfi_def_cfa 7, 8
	ret
	.cfi_endproc
.LFE5317:
	.size	_ZNSt14_Optional_baseINSt7__cxx1112basic_stringIcSt11char_traitsIcESaIcEEELb0ELb0EEC2EOS6_, .-_ZNSt14_Optional_baseINSt7__cxx1112basic_stringIcSt11char_traitsIcESaIcEEELb0ELb0EEC2EOS6_
	.weak	_ZNSt14_Optional_baseINSt7__cxx1112basic_stringIcSt11char_traitsIcESaIcEEELb0ELb0EEC1EOS6_
	.set	_ZNSt14_Optional_baseINSt7__cxx1112basic_stringIcSt11char_traitsIcESaIcEEELb0ELb0EEC1EOS6_,_ZNSt14_Optional_baseINSt7__cxx1112basic_stringIcSt11char_traitsIcESaIcEEELb0ELb0EEC2EOS6_
	.section	.text._ZNSt17_Optional_payloadINSt7__cxx1112basic_stringIcSt11char_traitsIcESaIcEEELb1ELb0ELb0EECI2St22_Optional_payload_baseIS5_EEbRKS8_,"axG",@progbits,_ZNSt17_Optional_payloadINSt7__cxx1112basic_stringIcSt11char_traitsIcESaIcEEELb1ELb0ELb0EECI5St22_Optional_payload_baseIS5_EEbRKS8_,comdat
	.align 2
	.weak	_ZNSt17_Optional_payloadINSt7__cxx1112basic_stringIcSt11char_traitsIcESaIcEEELb1ELb0ELb0EECI2St22_Optional_payload_baseIS5_EEbRKS8_
	.type	_ZNSt17_Optional_payloadINSt7__cxx1112basic_stringIcSt11char_traitsIcESaIcEEELb1ELb0ELb0EECI2St22_Optional_payload_baseIS5_EEbRKS8_, @function
_ZNSt17_Optional_payloadINSt7__cxx1112basic_stringIcSt11char_traitsIcESaIcEEELb1ELb0ELb0EECI2St22_Optional_payload_baseIS5_EEbRKS8_:
.LFB5322:
	.cfi_startproc
	endbr64
	pushq	%rbp
	.cfi_def_cfa_offset 16
	.cfi_offset 6, -16
	movq	%rsp, %rbp
	.cfi_def_cfa_register 6
	subq	$32, %rsp
	movq	%rdi, -8(%rbp)
	movl	%esi, %eax
	movq	%rdx, -24(%rbp)
	movb	%al, -12(%rbp)
	movq	-8(%rbp), %rax
	movzbl	-12(%rbp), %edx
	movzbl	%dl, %ecx
	movq	-24(%rbp), %rdx
	movl	%ecx, %esi
	movq	%rax, %rdi
	call	_ZNSt22_Optional_payload_baseINSt7__cxx1112basic_stringIcSt11char_traitsIcESaIcEEEEC2EbRKS6_
	nop
	leave
	.cfi_def_cfa 7, 8
	ret
	.cfi_endproc
.LFE5322:
	.size	_ZNSt17_Optional_payloadINSt7__cxx1112basic_stringIcSt11char_traitsIcESaIcEEELb1ELb0ELb0EECI2St22_Optional_payload_baseIS5_EEbRKS8_, .-_ZNSt17_Optional_payloadINSt7__cxx1112basic_stringIcSt11char_traitsIcESaIcEEELb1ELb0ELb0EECI2St22_Optional_payload_baseIS5_EEbRKS8_
	.weak	_ZNSt17_Optional_payloadINSt7__cxx1112basic_stringIcSt11char_traitsIcESaIcEEELb1ELb0ELb0EECI1St22_Optional_payload_baseIS5_EEbRKS8_
	.set	_ZNSt17_Optional_payloadINSt7__cxx1112basic_stringIcSt11char_traitsIcESaIcEEELb1ELb0ELb0EECI1St22_Optional_payload_baseIS5_EEbRKS8_,_ZNSt17_Optional_payloadINSt7__cxx1112basic_stringIcSt11char_traitsIcESaIcEEELb1ELb0ELb0EECI2St22_Optional_payload_baseIS5_EEbRKS8_
	.section	.text._ZNSt17_Optional_payloadINSt7__cxx1112basic_stringIcSt11char_traitsIcESaIcEEELb0ELb0ELb0EECI2St22_Optional_payload_baseIS5_EEbRKS8_,"axG",@progbits,_ZNSt17_Optional_payloadINSt7__cxx1112basic_stringIcSt11char_traitsIcESaIcEEELb0ELb0ELb0EECI5St22_Optional_payload_baseIS5_EEbRKS8_,comdat
	.align 2
	.weak	_ZNSt17_Optional_payloadINSt7__cxx1112basic_stringIcSt11char_traitsIcESaIcEEELb0ELb0ELb0EECI2St22_Optional_payload_baseIS5_EEbRKS8_
	.type	_ZNSt17_Optional_payloadINSt7__cxx1112basic_stringIcSt11char_traitsIcESaIcEEELb0ELb0ELb0EECI2St22_Optional_payload_baseIS5_EEbRKS8_, @function
_ZNSt17_Optional_payloadINSt7__cxx1112basic_stringIcSt11char_traitsIcESaIcEEELb0ELb0ELb0EECI2St22_Optional_payload_baseIS5_EEbRKS8_:
.LFB5324:
	.cfi_startproc
	endbr64
	pushq	%rbp
	.cfi_def_cfa_offset 16
	.cfi_offset 6, -16
	movq	%rsp, %rbp
	.cfi_def_cfa_register 6
	subq	$32, %rsp
	movq	%rdi, -8(%rbp)
	movl	%esi, %eax
	movq	%rdx, -24(%rbp)
	movb	%al, -12(%rbp)
	movq	-8(%rbp), %rax
	movzbl	-12(%rbp), %edx
	movzbl	%dl, %ecx
	movq	-24(%rbp), %rdx
	movl	%ecx, %esi
	movq	%rax, %rdi
	call	_ZNSt17_Optional_payloadINSt7__cxx1112basic_stringIcSt11char_traitsIcESaIcEEELb1ELb0ELb0EECI2St22_Optional_payload_baseIS5_EEbRKS8_
	nop
	leave
	.cfi_def_cfa 7, 8
	ret
	.cfi_endproc
.LFE5324:
	.size	_ZNSt17_Optional_payloadINSt7__cxx1112basic_stringIcSt11char_traitsIcESaIcEEELb0ELb0ELb0EECI2St22_Optional_payload_baseIS5_EEbRKS8_, .-_ZNSt17_Optional_payloadINSt7__cxx1112basic_stringIcSt11char_traitsIcESaIcEEELb0ELb0ELb0EECI2St22_Optional_payload_baseIS5_EEbRKS8_
	.weak	_ZNSt17_Optional_payloadINSt7__cxx1112basic_stringIcSt11char_traitsIcESaIcEEELb0ELb0ELb0EECI1St22_Optional_payload_baseIS5_EEbRKS8_
	.set	_ZNSt17_Optional_payloadINSt7__cxx1112basic_stringIcSt11char_traitsIcESaIcEEELb0ELb0ELb0EECI1St22_Optional_payload_baseIS5_EEbRKS8_,_ZNSt17_Optional_payloadINSt7__cxx1112basic_stringIcSt11char_traitsIcESaIcEEELb0ELb0ELb0EECI2St22_Optional_payload_baseIS5_EEbRKS8_
	.section	.text._ZNSt14_Optional_baseINSt7__cxx1112basic_stringIcSt11char_traitsIcESaIcEEELb0ELb0EEC2ERKS6_,"axG",@progbits,_ZNSt14_Optional_baseINSt7__cxx1112basic_stringIcSt11char_traitsIcESaIcEEELb0ELb0EEC5ERKS6_,comdat
	.align 2
	.weak	_ZNSt14_Optional_baseINSt7__cxx1112basic_stringIcSt11char_traitsIcESaIcEEELb0ELb0EEC2ERKS6_
	.type	_ZNSt14_Optional_baseINSt7__cxx1112basic_stringIcSt11char_traitsIcESaIcEEELb0ELb0EEC2ERKS6_, @function
_ZNSt14_Optional_baseINSt7__cxx1112basic_stringIcSt11char_traitsIcESaIcEEELb0ELb0EEC2ERKS6_:
.LFB5326:
	.cfi_startproc
	endbr64
	pushq	%rbp
	.cfi_def_cfa_offset 16
	.cfi_offset 6, -16
	movq	%rsp, %rbp
	.cfi_def_cfa_register 6
	subq	$16, %rsp
	movq	%rdi, -8(%rbp)
	movq	%rsi, -16(%rbp)
	movq	-8(%rbp), %rax
	movq	-16(%rbp), %rdx
	movq	-16(%rbp), %rcx
	movzbl	32(%rcx), %ecx
	movzbl	%cl, %ecx
	movl	%ecx, %esi
	movq	%rax, %rdi
	call	_ZNSt17_Optional_payloadINSt7__cxx1112basic_stringIcSt11char_traitsIcESaIcEEELb0ELb0ELb0EECI1St22_Optional_payload_baseIS5_EEbRKS8_
	nop
	leave
	.cfi_def_cfa 7, 8
	ret
	.cfi_endproc
.LFE5326:
	.size	_ZNSt14_Optional_baseINSt7__cxx1112basic_stringIcSt11char_traitsIcESaIcEEELb0ELb0EEC2ERKS6_, .-_ZNSt14_Optional_baseINSt7__cxx1112basic_stringIcSt11char_traitsIcESaIcEEELb0ELb0EEC2ERKS6_
	.weak	_ZNSt14_Optional_baseINSt7__cxx1112basic_stringIcSt11char_traitsIcESaIcEEELb0ELb0EEC1ERKS6_
	.set	_ZNSt14_Optional_baseINSt7__cxx1112basic_stringIcSt11char_traitsIcESaIcEEELb0ELb0EEC1ERKS6_,_ZNSt14_Optional_baseINSt7__cxx1112basic_stringIcSt11char_traitsIcESaIcEEELb0ELb0EEC2ERKS6_
	.section	.text._ZNKSt19_Optional_base_implINSt7__cxx1112basic_stringIcSt11char_traitsIcESaIcEEESt14_Optional_baseIS5_Lb0ELb0EEE13_M_is_engagedEv,"axG",@progbits,_ZNKSt19_Optional_base_implINSt7__cxx1112basic_stringIcSt11char_traitsIcESaIcEEESt14_Optional_baseIS5_Lb0ELb0EEE13_M_is_engagedEv,comdat
	.align 2
	.weak	_ZNKSt19_Optional_base_implINSt7__cxx1112basic_stringIcSt11char_traitsIcESaIcEEESt14_Optional_baseIS5_Lb0ELb0EEE13_M_is_engagedEv
	.type	_ZNKSt19_Optional_base_implINSt7__cxx1112basic_stringIcSt11char_traitsIcESaIcEEESt14_Optional_baseIS5_Lb0ELb0EEE13_M_is_engagedEv, @function
_ZNKSt19_Optional_base_implINSt7__cxx1112basic_stringIcSt11char_traitsIcESaIcEEESt14_Optional_baseIS5_Lb0ELb0EEE13_M_is_engagedEv:
.LFB5329:
	.cfi_startproc
	endbr64
	pushq	%rbp
	.cfi_def_cfa_offset 16
	.cfi_offset 6, -16
	movq	%rsp, %rbp
	.cfi_def_cfa_register 6
	movq	%rdi, -8(%rbp)
	movq	-8(%rbp), %rax
	movzbl	32(%rax), %eax
	popq	%rbp
	.cfi_def_cfa 7, 8
	ret
	.cfi_endproc
.LFE5329:
	.size	_ZNKSt19_Optional_base_implINSt7__cxx1112basic_stringIcSt11char_traitsIcESaIcEEESt14_Optional_baseIS5_Lb0ELb0EEE13_M_is_engagedEv, .-_ZNKSt19_Optional_base_implINSt7__cxx1112basic_stringIcSt11char_traitsIcESaIcEEESt14_Optional_baseIS5_Lb0ELb0EEE13_M_is_engagedEv
	.section	.text._ZNRSt8optionalINSt7__cxx1112basic_stringIcSt11char_traitsIcESaIcEEEE5valueEv,"axG",@progbits,_ZNRSt8optionalINSt7__cxx1112basic_stringIcSt11char_traitsIcESaIcEEEE5valueEv,comdat
	.align 2
	.weak	_ZNRSt8optionalINSt7__cxx1112basic_stringIcSt11char_traitsIcESaIcEEEE5valueEv
	.type	_ZNRSt8optionalINSt7__cxx1112basic_stringIcSt11char_traitsIcESaIcEEEE5valueEv, @function
_ZNRSt8optionalINSt7__cxx1112basic_stringIcSt11char_traitsIcESaIcEEEE5valueEv:
.LFB5328:
	.cfi_startproc
	endbr64
	pushq	%rbp
	.cfi_def_cfa_offset 16
	.cfi_offset 6, -16
	movq	%rsp, %rbp
	.cfi_def_cfa_register 6
	subq	$16, %rsp
	movq	%rdi, -8(%rbp)
	movq	-8(%rbp), %rax
	movq	%rax, %rdi
	call	_ZNKSt19_Optional_base_implINSt7__cxx1112basic_stringIcSt11char_traitsIcESaIcEEESt14_Optional_baseIS5_Lb0ELb0EEE13_M_is_engagedEv
	testb	%al, %al
	je	.L396
	movq	-8(%rbp), %rax
	movq	%rax, %rdi
	call	_ZNSt19_Optional_base_implINSt7__cxx1112basic_stringIcSt11char_traitsIcESaIcEEESt14_Optional_baseIS5_Lb0ELb0EEE6_M_getEv
	jmp	.L398
.L396:
	call	_ZSt27__throw_bad_optional_accessv
.L398:
	leave
	.cfi_def_cfa 7, 8
	ret
	.cfi_endproc
.LFE5328:
	.size	_ZNRSt8optionalINSt7__cxx1112basic_stringIcSt11char_traitsIcESaIcEEEE5valueEv, .-_ZNRSt8optionalINSt7__cxx1112basic_stringIcSt11char_traitsIcESaIcEEEE5valueEv
	.section	.text._ZNSt7__cxx1112basic_stringIcSt11char_traitsIcESaIcEEC2IS3_EEPKcRKS3_,"axG",@progbits,_ZNSt7__cxx1112basic_stringIcSt11char_traitsIcESaIcEEC5IS3_EEPKcRKS3_,comdat
	.align 2
	.weak	_ZNSt7__cxx1112basic_stringIcSt11char_traitsIcESaIcEEC2IS3_EEPKcRKS3_
	.type	_ZNSt7__cxx1112basic_stringIcSt11char_traitsIcESaIcEEC2IS3_EEPKcRKS3_, @function
_ZNSt7__cxx1112basic_stringIcSt11char_traitsIcESaIcEEC2IS3_EEPKcRKS3_:
.LFB5332:
	.cfi_startproc
	.cfi_personality 0x9b,DW.ref.__gxx_personality_v0
	.cfi_lsda 0x1b,.LLSDA5332
	endbr64
	pushq	%rbp
	.cfi_def_cfa_offset 16
	.cfi_offset 6, -16
	movq	%rsp, %rbp
	.cfi_def_cfa_register 6
	pushq	%rbx
	subq	$72, %rsp
	.cfi_offset 3, -24
	movq	%rdi, -56(%rbp)
	movq	%rsi, -64(%rbp)
	movq	%rdx, -72(%rbp)
	movq	%fs:40, %rax
	movq	%rax, -24(%rbp)
	xorl	%eax, %eax
	movq	-56(%rbp), %rbx
	movq	-56(%rbp), %rax
	movq	%rax, %rdi
.LEHB76:
	call	_ZNSt7__cxx1112basic_stringIcSt11char_traitsIcESaIcEE13_M_local_dataEv@PLT
	movq	%rax, %rcx
	movq	-72(%rbp), %rax
	movq	%rax, %rdx
	movq	%rcx, %rsi
	movq	%rbx, %rdi
	call	_ZNSt7__cxx1112basic_stringIcSt11char_traitsIcESaIcEE12_Alloc_hiderC1EPcRKS3_@PLT
.LEHE76:
	cmpq	$0, -64(%rbp)
	je	.L400
	movq	-64(%rbp), %rax
	movq	%rax, %rdi
.LEHB77:
	call	_ZNSt11char_traitsIcE6lengthEPKc
	movq	-64(%rbp), %rdx
	addq	%rdx, %rax
	jmp	.L401
.L400:
	movl	$1, %eax
.L401:
	movq	%rax, -32(%rbp)
	movq	-32(%rbp), %rdx
	movq	-64(%rbp), %rcx
	movq	-56(%rbp), %rax
	movq	%rcx, %rsi
	movq	%rax, %rdi
	call	_ZNSt7__cxx1112basic_stringIcSt11char_traitsIcESaIcEE12_M_constructIPKcEEvT_S8_St20forward_iterator_tag
.LEHE77:
	jmp	.L405
.L404:
	endbr64
	movq	%rax, %rbx
	movq	-56(%rbp), %rax
	movq	%rax, %rdi
	call	_ZNSt7__cxx1112basic_stringIcSt11char_traitsIcESaIcEE12_Alloc_hiderD1Ev
	movq	%rbx, %rax
	movq	%rax, %rdi
.LEHB78:
	call	_Unwind_Resume@PLT
.LEHE78:
.L405:
	movq	-24(%rbp), %rax
	subq	%fs:40, %rax
	je	.L403
	call	__stack_chk_fail@PLT
.L403:
	movq	-8(%rbp), %rbx
	leave
	.cfi_def_cfa 7, 8
	ret
	.cfi_endproc
.LFE5332:
	.section	.gcc_except_table
.LLSDA5332:
	.byte	0xff
	.byte	0xff
	.byte	0x1
	.uleb128 .LLSDACSE5332-.LLSDACSB5332
.LLSDACSB5332:
	.uleb128 .LEHB76-.LFB5332
	.uleb128 .LEHE76-.LEHB76
	.uleb128 0
	.uleb128 0
	.uleb128 .LEHB77-.LFB5332
	.uleb128 .LEHE77-.LEHB77
	.uleb128 .L404-.LFB5332
	.uleb128 0
	.uleb128 .LEHB78-.LFB5332
	.uleb128 .LEHE78-.LEHB78
	.uleb128 0
	.uleb128 0
.LLSDACSE5332:
	.section	.text._ZNSt7__cxx1112basic_stringIcSt11char_traitsIcESaIcEEC2IS3_EEPKcRKS3_,"axG",@progbits,_ZNSt7__cxx1112basic_stringIcSt11char_traitsIcESaIcEEC5IS3_EEPKcRKS3_,comdat
	.size	_ZNSt7__cxx1112basic_stringIcSt11char_traitsIcESaIcEEC2IS3_EEPKcRKS3_, .-_ZNSt7__cxx1112basic_stringIcSt11char_traitsIcESaIcEEC2IS3_EEPKcRKS3_
	.weak	_ZNSt7__cxx1112basic_stringIcSt11char_traitsIcESaIcEEC1IS3_EEPKcRKS3_
	.set	_ZNSt7__cxx1112basic_stringIcSt11char_traitsIcESaIcEEC1IS3_EEPKcRKS3_,_ZNSt7__cxx1112basic_stringIcSt11char_traitsIcESaIcEEC2IS3_EEPKcRKS3_
	.section	.text._ZNSt8optionalINSt7__cxx1112basic_stringIcSt11char_traitsIcESaIcEEEEaSIS5_EENSt9enable_ifIX7__and_vISt6__not_ISt7is_sameIS6_NSt9remove_cvINSt16remove_referenceIT_E4typeEE4typeEEES9_ISt6__and_IJSt9is_scalarIS5_ESA_IS5_NSt5decayISD_E4typeEEEEESt16is_constructibleIS5_JSD_EESt13is_assignableIRS5_SD_EEERS6_E4typeEOSD_,"axG",@progbits,_ZNSt8optionalINSt7__cxx1112basic_stringIcSt11char_traitsIcESaIcEEEEaSIS5_EENSt9enable_ifIX7__and_vISt6__not_ISt7is_sameIS6_NSt9remove_cvINSt16remove_referenceIT_E4typeEE4typeEEES9_ISt6__and_IJSt9is_scalarIS5_ESA_IS5_NSt5decayISD_E4typeEEEEESt16is_constructibleIS5_JSD_EESt13is_assignableIRS5_SD_EEERS6_E4typeEOSD_,comdat
	.align 2
	.weak	_ZNSt8optionalINSt7__cxx1112basic_stringIcSt11char_traitsIcESaIcEEEEaSIS5_EENSt9enable_ifIX7__and_vISt6__not_ISt7is_sameIS6_NSt9remove_cvINSt16remove_referenceIT_E4typeEE4typeEEES9_ISt6__and_IJSt9is_scalarIS5_ESA_IS5_NSt5decayISD_E4typeEEEEESt16is_constructibleIS5_JSD_EESt13is_assignableIRS5_SD_EEERS6_E4typeEOSD_
	.type	_ZNSt8optionalINSt7__cxx1112basic_stringIcSt11char_traitsIcESaIcEEEEaSIS5_EENSt9enable_ifIX7__and_vISt6__not_ISt7is_sameIS6_NSt9remove_cvINSt16remove_referenceIT_E4typeEE4typeEEES9_ISt6__and_IJSt9is_scalarIS5_ESA_IS5_NSt5decayISD_E4typeEEEEESt16is_constructibleIS5_JSD_EESt13is_assignableIRS5_SD_EEERS6_E4typeEOSD_, @function
_ZNSt8optionalINSt7__cxx1112basic_stringIcSt11char_traitsIcESaIcEEEEaSIS5_EENSt9enable_ifIX7__and_vISt6__not_ISt7is_sameIS6_NSt9remove_cvINSt16remove_referenceIT_E4typeEE4typeEEES9_ISt6__and_IJSt9is_scalarIS5_ESA_IS5_NSt5decayISD_E4typeEEEEESt16is_constructibleIS5_JSD_EESt13is_assignableIRS5_SD_EEERS6_E4typeEOSD_:
.LFB5334:
	.cfi_startproc
	endbr64
	pushq	%rbp
	.cfi_def_cfa_offset 16
	.cfi_offset 6, -16
	movq	%rsp, %rbp
	.cfi_def_cfa_register 6
	pushq	%rbx
	subq	$24, %rsp
	.cfi_offset 3, -24
	movq	%rdi, -24(%rbp)
	movq	%rsi, -32(%rbp)
	movq	-24(%rbp), %rax
	movq	%rax, %rdi
	call	_ZNKSt19_Optional_base_implINSt7__cxx1112basic_stringIcSt11char_traitsIcESaIcEEESt14_Optional_baseIS5_Lb0ELb0EEE13_M_is_engagedEv
	testb	%al, %al
	je	.L407
	movq	-32(%rbp), %rax
	movq	%rax, %rdi
	call	_ZSt7forwardINSt7__cxx1112basic_stringIcSt11char_traitsIcESaIcEEEEOT_RNSt16remove_referenceIS6_E4typeE
	movq	%rax, %rbx
	movq	-24(%rbp), %rax
	movq	%rax, %rdi
	call	_ZNSt19_Optional_base_implINSt7__cxx1112basic_stringIcSt11char_traitsIcESaIcEEESt14_Optional_baseIS5_Lb0ELb0EEE6_M_getEv
	movq	%rbx, %rsi
	movq	%rax, %rdi
	call	_ZNSt7__cxx1112basic_stringIcSt11char_traitsIcESaIcEEaSEOS4_@PLT
	jmp	.L408
.L407:
	movq	-32(%rbp), %rax
	movq	%rax, %rdi
	call	_ZSt7forwardINSt7__cxx1112basic_stringIcSt11char_traitsIcESaIcEEEEOT_RNSt16remove_referenceIS6_E4typeE
	movq	%rax, %rdx
	movq	-24(%rbp), %rax
	movq	%rdx, %rsi
	movq	%rax, %rdi
	call	_ZNSt19_Optional_base_implINSt7__cxx1112basic_stringIcSt11char_traitsIcESaIcEEESt14_Optional_baseIS5_Lb0ELb0EEE12_M_constructIJS5_EEEvDpOT_
.L408:
	movq	-24(%rbp), %rax
	movq	-8(%rbp), %rbx
	leave
	.cfi_def_cfa 7, 8
	ret
	.cfi_endproc
.LFE5334:
	.size	_ZNSt8optionalINSt7__cxx1112basic_stringIcSt11char_traitsIcESaIcEEEEaSIS5_EENSt9enable_ifIX7__and_vISt6__not_ISt7is_sameIS6_NSt9remove_cvINSt16remove_referenceIT_E4typeEE4typeEEES9_ISt6__and_IJSt9is_scalarIS5_ESA_IS5_NSt5decayISD_E4typeEEEEESt16is_constructibleIS5_JSD_EESt13is_assignableIRS5_SD_EEERS6_E4typeEOSD_, .-_ZNSt8optionalINSt7__cxx1112basic_stringIcSt11char_traitsIcESaIcEEEEaSIS5_EENSt9enable_ifIX7__and_vISt6__not_ISt7is_sameIS6_NSt9remove_cvINSt16remove_referenceIT_E4typeEE4typeEEES9_ISt6__and_IJSt9is_scalarIS5_ESA_IS5_NSt5decayISD_E4typeEEEEESt16is_constructibleIS5_JSD_EESt13is_assignableIRS5_SD_EEERS6_E4typeEOSD_
	.section	.text._ZSteqINSt7__cxx1112basic_stringIcSt11char_traitsIcESaIcEEEEbRKSt8optionalIT_ESt9nullopt_t,"axG",@progbits,_ZSteqINSt7__cxx1112basic_stringIcSt11char_traitsIcESaIcEEEEbRKSt8optionalIT_ESt9nullopt_t,comdat
	.weak	_ZSteqINSt7__cxx1112basic_stringIcSt11char_traitsIcESaIcEEEEbRKSt8optionalIT_ESt9nullopt_t
	.type	_ZSteqINSt7__cxx1112basic_stringIcSt11char_traitsIcESaIcEEEEbRKSt8optionalIT_ESt9nullopt_t, @function
_ZSteqINSt7__cxx1112basic_stringIcSt11char_traitsIcESaIcEEEEbRKSt8optionalIT_ESt9nullopt_t:
.LFB5338:
	.cfi_startproc
	endbr64
	pushq	%rbp
	.cfi_def_cfa_offset 16
	.cfi_offset 6, -16
	movq	%rsp, %rbp
	.cfi_def_cfa_register 6
	subq	$16, %rsp
	movq	%rdi, -8(%rbp)
	movq	-8(%rbp), %rax
	movq	%rax, %rdi
	call	_ZNKSt8optionalINSt7__cxx1112basic_stringIcSt11char_traitsIcESaIcEEEEcvbEv
	xorl	$1, %eax
	leave
	.cfi_def_cfa 7, 8
	ret
	.cfi_endproc
.LFE5338:
	.size	_ZSteqINSt7__cxx1112basic_stringIcSt11char_traitsIcESaIcEEEEbRKSt8optionalIT_ESt9nullopt_t, .-_ZSteqINSt7__cxx1112basic_stringIcSt11char_traitsIcESaIcEEEEbRKSt8optionalIT_ESt9nullopt_t
	.section	.text._ZSt4moveIRNSt7__cxx1112basic_stringIcSt11char_traitsIcESaIcEEEEONSt16remove_referenceIT_E4typeEOS8_,"axG",@progbits,_ZSt4moveIRNSt7__cxx1112basic_stringIcSt11char_traitsIcESaIcEEEEONSt16remove_referenceIT_E4typeEOS8_,comdat
	.weak	_ZSt4moveIRNSt7__cxx1112basic_stringIcSt11char_traitsIcESaIcEEEEONSt16remove_referenceIT_E4typeEOS8_
	.type	_ZSt4moveIRNSt7__cxx1112basic_stringIcSt11char_traitsIcESaIcEEEEONSt16remove_referenceIT_E4typeEOS8_, @function
_ZSt4moveIRNSt7__cxx1112basic_stringIcSt11char_traitsIcESaIcEEEEONSt16remove_referenceIT_E4typeEOS8_:
.LFB5396:
	.cfi_startproc
	endbr64
	pushq	%rbp
	.cfi_def_cfa_offset 16
	.cfi_offset 6, -16
	movq	%rsp, %rbp
	.cfi_def_cfa_register 6
	movq	%rdi, -8(%rbp)
	movq	-8(%rbp), %rax
	popq	%rbp
	.cfi_def_cfa 7, 8
	ret
	.cfi_endproc
.LFE5396:
	.size	_ZSt4moveIRNSt7__cxx1112basic_stringIcSt11char_traitsIcESaIcEEEEONSt16remove_referenceIT_E4typeEOS8_, .-_ZSt4moveIRNSt7__cxx1112basic_stringIcSt11char_traitsIcESaIcEEEEONSt16remove_referenceIT_E4typeEOS8_
	.section	.text._ZSt11__addressofINSt7__cxx1112basic_stringIcSt11char_traitsIcESaIcEEEEPT_RS6_,"axG",@progbits,_ZSt11__addressofINSt7__cxx1112basic_stringIcSt11char_traitsIcESaIcEEEEPT_RS6_,comdat
	.weak	_ZSt11__addressofINSt7__cxx1112basic_stringIcSt11char_traitsIcESaIcEEEEPT_RS6_
	.type	_ZSt11__addressofINSt7__cxx1112basic_stringIcSt11char_traitsIcESaIcEEEEPT_RS6_, @function
_ZSt11__addressofINSt7__cxx1112basic_stringIcSt11char_traitsIcESaIcEEEEPT_RS6_:
.LFB5412:
	.cfi_startproc
	endbr64
	pushq	%rbp
	.cfi_def_cfa_offset 16
	.cfi_offset 6, -16
	movq	%rsp, %rbp
	.cfi_def_cfa_register 6
	movq	%rdi, -8(%rbp)
	movq	-8(%rbp), %rax
	popq	%rbp
	.cfi_def_cfa 7, 8
	ret
	.cfi_endproc
.LFE5412:
	.size	_ZSt11__addressofINSt7__cxx1112basic_stringIcSt11char_traitsIcESaIcEEEEPT_RS6_, .-_ZSt11__addressofINSt7__cxx1112basic_stringIcSt11char_traitsIcESaIcEEEEPT_RS6_
	.section	.text._ZNSt8optionalIN3bbt6cxxlua6detail6LuaErrEEC2IS3_Lb1EEEOT_,"axG",@progbits,_ZNSt8optionalIN3bbt6cxxlua6detail6LuaErrEEC5IS3_Lb1EEEOT_,comdat
	.align 2
	.weak	_ZNSt8optionalIN3bbt6cxxlua6detail6LuaErrEEC2IS3_Lb1EEEOT_
	.type	_ZNSt8optionalIN3bbt6cxxlua6detail6LuaErrEEC2IS3_Lb1EEEOT_, @function
_ZNSt8optionalIN3bbt6cxxlua6detail6LuaErrEEC2IS3_Lb1EEEOT_:
.LFB5444:
	.cfi_startproc
	endbr64
	pushq	%rbp
	.cfi_def_cfa_offset 16
	.cfi_offset 6, -16
	movq	%rsp, %rbp
	.cfi_def_cfa_register 6
	pushq	%rbx
	subq	$24, %rsp
	.cfi_offset 3, -24
	movq	%rdi, -24(%rbp)
	movq	%rsi, -32(%rbp)
	movq	-24(%rbp), %rbx
	movq	-32(%rbp), %rax
	movq	%rax, %rdi
	call	_ZSt7forwardIN3bbt6cxxlua6detail6LuaErrEEOT_RNSt16remove_referenceIS4_E4typeE
	movq	%rax, %rsi
	movq	%rbx, %rdi
	call	_ZNSt14_Optional_baseIN3bbt6cxxlua6detail6LuaErrELb0ELb0EEC2IJS3_ELb0EEESt10in_place_tDpOT_
	nop
	movq	-8(%rbp), %rbx
	leave
	.cfi_def_cfa 7, 8
	ret
	.cfi_endproc
.LFE5444:
	.size	_ZNSt8optionalIN3bbt6cxxlua6detail6LuaErrEEC2IS3_Lb1EEEOT_, .-_ZNSt8optionalIN3bbt6cxxlua6detail6LuaErrEEC2IS3_Lb1EEEOT_
	.weak	_ZNSt8optionalIN3bbt6cxxlua6detail6LuaErrEEC1IS3_Lb1EEEOT_
	.set	_ZNSt8optionalIN3bbt6cxxlua6detail6LuaErrEEC1IS3_Lb1EEEOT_,_ZNSt8optionalIN3bbt6cxxlua6detail6LuaErrEEC2IS3_Lb1EEEOT_
	.section	.text._ZNSt22_Optional_payload_baseIN3bbt6cxxlua6detail6LuaErrEED2Ev,"axG",@progbits,_ZNSt22_Optional_payload_baseIN3bbt6cxxlua6detail6LuaErrEED5Ev,comdat
	.align 2
	.weak	_ZNSt22_Optional_payload_baseIN3bbt6cxxlua6detail6LuaErrEED2Ev
	.type	_ZNSt22_Optional_payload_baseIN3bbt6cxxlua6detail6LuaErrEED2Ev, @function
_ZNSt22_Optional_payload_baseIN3bbt6cxxlua6detail6LuaErrEED2Ev:
.LFB5449:
	.cfi_startproc
	endbr64
	pushq	%rbp
	.cfi_def_cfa_offset 16
	.cfi_offset 6, -16
	movq	%rsp, %rbp
	.cfi_def_cfa_register 6
	subq	$16, %rsp
	movq	%rdi, -8(%rbp)
	movq	-8(%rbp), %rax
	movq	%rax, %rdi
	call	_ZNSt22_Optional_payload_baseIN3bbt6cxxlua6detail6LuaErrEE8_StorageIS3_Lb0EED1Ev
	nop
	leave
	.cfi_def_cfa 7, 8
	ret
	.cfi_endproc
.LFE5449:
	.size	_ZNSt22_Optional_payload_baseIN3bbt6cxxlua6detail6LuaErrEED2Ev, .-_ZNSt22_Optional_payload_baseIN3bbt6cxxlua6detail6LuaErrEED2Ev
	.weak	_ZNSt22_Optional_payload_baseIN3bbt6cxxlua6detail6LuaErrEED1Ev
	.set	_ZNSt22_Optional_payload_baseIN3bbt6cxxlua6detail6LuaErrEED1Ev,_ZNSt22_Optional_payload_baseIN3bbt6cxxlua6detail6LuaErrEED2Ev
	.section	.text._ZNSt17_Optional_payloadIN3bbt6cxxlua6detail6LuaErrELb1ELb0ELb0EED2Ev,"axG",@progbits,_ZNSt17_Optional_payloadIN3bbt6cxxlua6detail6LuaErrELb1ELb0ELb0EED5Ev,comdat
	.align 2
	.weak	_ZNSt17_Optional_payloadIN3bbt6cxxlua6detail6LuaErrELb1ELb0ELb0EED2Ev
	.type	_ZNSt17_Optional_payloadIN3bbt6cxxlua6detail6LuaErrELb1ELb0ELb0EED2Ev, @function
_ZNSt17_Optional_payloadIN3bbt6cxxlua6detail6LuaErrELb1ELb0ELb0EED2Ev:
.LFB5451:
	.cfi_startproc
	endbr64
	pushq	%rbp
	.cfi_def_cfa_offset 16
	.cfi_offset 6, -16
	movq	%rsp, %rbp
	.cfi_def_cfa_register 6
	subq	$16, %rsp
	movq	%rdi, -8(%rbp)
	movq	-8(%rbp), %rax
	movq	%rax, %rdi
	call	_ZNSt22_Optional_payload_baseIN3bbt6cxxlua6detail6LuaErrEED2Ev
	nop
	leave
	.cfi_def_cfa 7, 8
	ret
	.cfi_endproc
.LFE5451:
	.size	_ZNSt17_Optional_payloadIN3bbt6cxxlua6detail6LuaErrELb1ELb0ELb0EED2Ev, .-_ZNSt17_Optional_payloadIN3bbt6cxxlua6detail6LuaErrELb1ELb0ELb0EED2Ev
	.weak	_ZNSt17_Optional_payloadIN3bbt6cxxlua6detail6LuaErrELb1ELb0ELb0EED1Ev
	.set	_ZNSt17_Optional_payloadIN3bbt6cxxlua6detail6LuaErrELb1ELb0ELb0EED1Ev,_ZNSt17_Optional_payloadIN3bbt6cxxlua6detail6LuaErrELb1ELb0ELb0EED2Ev
	.section	.text._ZNSt17_Optional_payloadIN3bbt6cxxlua6detail6LuaErrELb0ELb0ELb0EED2Ev,"axG",@progbits,_ZNSt17_Optional_payloadIN3bbt6cxxlua6detail6LuaErrELb0ELb0ELb0EED5Ev,comdat
	.align 2
	.weak	_ZNSt17_Optional_payloadIN3bbt6cxxlua6detail6LuaErrELb0ELb0ELb0EED2Ev
	.type	_ZNSt17_Optional_payloadIN3bbt6cxxlua6detail6LuaErrELb0ELb0ELb0EED2Ev, @function
_ZNSt17_Optional_payloadIN3bbt6cxxlua6detail6LuaErrELb0ELb0ELb0EED2Ev:
.LFB5453:
	.cfi_startproc
	endbr64
	pushq	%rbp
	.cfi_def_cfa_offset 16
	.cfi_offset 6, -16
	movq	%rsp, %rbp
	.cfi_def_cfa_register 6
	subq	$16, %rsp
	movq	%rdi, -8(%rbp)
	movq	-8(%rbp), %rax
	movq	%rax, %rdi
	call	_ZNSt22_Optional_payload_baseIN3bbt6cxxlua6detail6LuaErrEE8_M_resetEv
	movq	-8(%rbp), %rax
	movq	%rax, %rdi
	call	_ZNSt17_Optional_payloadIN3bbt6cxxlua6detail6LuaErrELb1ELb0ELb0EED2Ev
	nop
	leave
	.cfi_def_cfa 7, 8
	ret
	.cfi_endproc
.LFE5453:
	.size	_ZNSt17_Optional_payloadIN3bbt6cxxlua6detail6LuaErrELb0ELb0ELb0EED2Ev, .-_ZNSt17_Optional_payloadIN3bbt6cxxlua6detail6LuaErrELb0ELb0ELb0EED2Ev
	.weak	_ZNSt17_Optional_payloadIN3bbt6cxxlua6detail6LuaErrELb0ELb0ELb0EED1Ev
	.set	_ZNSt17_Optional_payloadIN3bbt6cxxlua6detail6LuaErrELb0ELb0ELb0EED1Ev,_ZNSt17_Optional_payloadIN3bbt6cxxlua6detail6LuaErrELb0ELb0ELb0EED2Ev
	.section	.text._ZNSt22_Optional_payload_baseIN3bbt6cxxlua6detail6LuaErrEE8_StorageIS3_Lb0EEC2Ev,"axG",@progbits,_ZNSt22_Optional_payload_baseIN3bbt6cxxlua6detail6LuaErrEE8_StorageIS3_Lb0EEC5Ev,comdat
	.align 2
	.weak	_ZNSt22_Optional_payload_baseIN3bbt6cxxlua6detail6LuaErrEE8_StorageIS3_Lb0EEC2Ev
	.type	_ZNSt22_Optional_payload_baseIN3bbt6cxxlua6detail6LuaErrEE8_StorageIS3_Lb0EEC2Ev, @function
_ZNSt22_Optional_payload_baseIN3bbt6cxxlua6detail6LuaErrEE8_StorageIS3_Lb0EEC2Ev:
.LFB5461:
	.cfi_startproc
	endbr64
	pushq	%rbp
	.cfi_def_cfa_offset 16
	.cfi_offset 6, -16
	movq	%rsp, %rbp
	.cfi_def_cfa_register 6
	movq	%rdi, -8(%rbp)
	nop
	popq	%rbp
	.cfi_def_cfa 7, 8
	ret
	.cfi_endproc
.LFE5461:
	.size	_ZNSt22_Optional_payload_baseIN3bbt6cxxlua6detail6LuaErrEE8_StorageIS3_Lb0EEC2Ev, .-_ZNSt22_Optional_payload_baseIN3bbt6cxxlua6detail6LuaErrEE8_StorageIS3_Lb0EEC2Ev
	.weak	_ZNSt22_Optional_payload_baseIN3bbt6cxxlua6detail6LuaErrEE8_StorageIS3_Lb0EEC1Ev
	.set	_ZNSt22_Optional_payload_baseIN3bbt6cxxlua6detail6LuaErrEE8_StorageIS3_Lb0EEC1Ev,_ZNSt22_Optional_payload_baseIN3bbt6cxxlua6detail6LuaErrEE8_StorageIS3_Lb0EEC2Ev
	.section	.text._ZNSt22_Optional_payload_baseIN3bbt6cxxlua6detail6LuaErrEEC2Ev,"axG",@progbits,_ZNSt22_Optional_payload_baseIN3bbt6cxxlua6detail6LuaErrEEC5Ev,comdat
	.align 2
	.weak	_ZNSt22_Optional_payload_baseIN3bbt6cxxlua6detail6LuaErrEEC2Ev
	.type	_ZNSt22_Optional_payload_baseIN3bbt6cxxlua6detail6LuaErrEEC2Ev, @function
_ZNSt22_Optional_payload_baseIN3bbt6cxxlua6detail6LuaErrEEC2Ev:
.LFB5463:
	.cfi_startproc
	endbr64
	pushq	%rbp
	.cfi_def_cfa_offset 16
	.cfi_offset 6, -16
	movq	%rsp, %rbp
	.cfi_def_cfa_register 6
	subq	$16, %rsp
	movq	%rdi, -8(%rbp)
	movq	-8(%rbp), %rax
	movq	%rax, %rdi
	call	_ZNSt22_Optional_payload_baseIN3bbt6cxxlua6detail6LuaErrEE8_StorageIS3_Lb0EEC1Ev
	movq	-8(%rbp), %rax
	movb	$0, 48(%rax)
	nop
	leave
	.cfi_def_cfa 7, 8
	ret
	.cfi_endproc
.LFE5463:
	.size	_ZNSt22_Optional_payload_baseIN3bbt6cxxlua6detail6LuaErrEEC2Ev, .-_ZNSt22_Optional_payload_baseIN3bbt6cxxlua6detail6LuaErrEEC2Ev
	.weak	_ZNSt22_Optional_payload_baseIN3bbt6cxxlua6detail6LuaErrEEC1Ev
	.set	_ZNSt22_Optional_payload_baseIN3bbt6cxxlua6detail6LuaErrEEC1Ev,_ZNSt22_Optional_payload_baseIN3bbt6cxxlua6detail6LuaErrEEC2Ev
	.section	.text._ZNSt17_Optional_payloadIN3bbt6cxxlua6detail6LuaErrELb1ELb0ELb0EEC2Ev,"axG",@progbits,_ZNSt17_Optional_payloadIN3bbt6cxxlua6detail6LuaErrELb1ELb0ELb0EEC5Ev,comdat
	.align 2
	.weak	_ZNSt17_Optional_payloadIN3bbt6cxxlua6detail6LuaErrELb1ELb0ELb0EEC2Ev
	.type	_ZNSt17_Optional_payloadIN3bbt6cxxlua6detail6LuaErrELb1ELb0ELb0EEC2Ev, @function
_ZNSt17_Optional_payloadIN3bbt6cxxlua6detail6LuaErrELb1ELb0ELb0EEC2Ev:
.LFB5465:
	.cfi_startproc
	endbr64
	pushq	%rbp
	.cfi_def_cfa_offset 16
	.cfi_offset 6, -16
	movq	%rsp, %rbp
	.cfi_def_cfa_register 6
	subq	$16, %rsp
	movq	%rdi, -8(%rbp)
	movq	-8(%rbp), %rax
	movq	%rax, %rdi
	call	_ZNSt22_Optional_payload_baseIN3bbt6cxxlua6detail6LuaErrEEC2Ev
	nop
	leave
	.cfi_def_cfa 7, 8
	ret
	.cfi_endproc
.LFE5465:
	.size	_ZNSt17_Optional_payloadIN3bbt6cxxlua6detail6LuaErrELb1ELb0ELb0EEC2Ev, .-_ZNSt17_Optional_payloadIN3bbt6cxxlua6detail6LuaErrELb1ELb0ELb0EEC2Ev
	.weak	_ZNSt17_Optional_payloadIN3bbt6cxxlua6detail6LuaErrELb1ELb0ELb0EEC1Ev
	.set	_ZNSt17_Optional_payloadIN3bbt6cxxlua6detail6LuaErrELb1ELb0ELb0EEC1Ev,_ZNSt17_Optional_payloadIN3bbt6cxxlua6detail6LuaErrELb1ELb0ELb0EEC2Ev
	.section	.text._ZNSt17_Optional_payloadIN3bbt6cxxlua6detail6LuaErrELb0ELb0ELb0EEC2Ev,"axG",@progbits,_ZNSt17_Optional_payloadIN3bbt6cxxlua6detail6LuaErrELb0ELb0ELb0EEC5Ev,comdat
	.align 2
	.weak	_ZNSt17_Optional_payloadIN3bbt6cxxlua6detail6LuaErrELb0ELb0ELb0EEC2Ev
	.type	_ZNSt17_Optional_payloadIN3bbt6cxxlua6detail6LuaErrELb0ELb0ELb0EEC2Ev, @function
_ZNSt17_Optional_payloadIN3bbt6cxxlua6detail6LuaErrELb0ELb0ELb0EEC2Ev:
.LFB5467:
	.cfi_startproc
	endbr64
	pushq	%rbp
	.cfi_def_cfa_offset 16
	.cfi_offset 6, -16
	movq	%rsp, %rbp
	.cfi_def_cfa_register 6
	subq	$16, %rsp
	movq	%rdi, -8(%rbp)
	movq	-8(%rbp), %rax
	movq	%rax, %rdi
	call	_ZNSt17_Optional_payloadIN3bbt6cxxlua6detail6LuaErrELb1ELb0ELb0EEC2Ev
	nop
	leave
	.cfi_def_cfa 7, 8
	ret
	.cfi_endproc
.LFE5467:
	.size	_ZNSt17_Optional_payloadIN3bbt6cxxlua6detail6LuaErrELb0ELb0ELb0EEC2Ev, .-_ZNSt17_Optional_payloadIN3bbt6cxxlua6detail6LuaErrELb0ELb0ELb0EEC2Ev
	.weak	_ZNSt17_Optional_payloadIN3bbt6cxxlua6detail6LuaErrELb0ELb0ELb0EEC1Ev
	.set	_ZNSt17_Optional_payloadIN3bbt6cxxlua6detail6LuaErrELb0ELb0ELb0EEC1Ev,_ZNSt17_Optional_payloadIN3bbt6cxxlua6detail6LuaErrELb0ELb0ELb0EEC2Ev
	.section	.text._ZNSt14_Optional_baseIN3bbt6cxxlua6detail6LuaErrELb0ELb0EEC2Ev,"axG",@progbits,_ZNSt14_Optional_baseIN3bbt6cxxlua6detail6LuaErrELb0ELb0EEC5Ev,comdat
	.align 2
	.weak	_ZNSt14_Optional_baseIN3bbt6cxxlua6detail6LuaErrELb0ELb0EEC2Ev
	.type	_ZNSt14_Optional_baseIN3bbt6cxxlua6detail6LuaErrELb0ELb0EEC2Ev, @function
_ZNSt14_Optional_baseIN3bbt6cxxlua6detail6LuaErrELb0ELb0EEC2Ev:
.LFB5469:
	.cfi_startproc
	endbr64
	pushq	%rbp
	.cfi_def_cfa_offset 16
	.cfi_offset 6, -16
	movq	%rsp, %rbp
	.cfi_def_cfa_register 6
	subq	$16, %rsp
	movq	%rdi, -8(%rbp)
	movq	-8(%rbp), %rax
	movq	%rax, %rdi
	call	_ZNSt17_Optional_payloadIN3bbt6cxxlua6detail6LuaErrELb0ELb0ELb0EEC1Ev
	nop
	leave
	.cfi_def_cfa 7, 8
	ret
	.cfi_endproc
.LFE5469:
	.size	_ZNSt14_Optional_baseIN3bbt6cxxlua6detail6LuaErrELb0ELb0EEC2Ev, .-_ZNSt14_Optional_baseIN3bbt6cxxlua6detail6LuaErrELb0ELb0EEC2Ev
	.weak	_ZNSt14_Optional_baseIN3bbt6cxxlua6detail6LuaErrELb0ELb0EEC1Ev
	.set	_ZNSt14_Optional_baseIN3bbt6cxxlua6detail6LuaErrELb0ELb0EEC1Ev,_ZNSt14_Optional_baseIN3bbt6cxxlua6detail6LuaErrELb0ELb0EEC2Ev
	.section	.text._ZNSt8optionalIN3bbt6cxxlua6detail6LuaErrEEC2ESt9nullopt_t,"axG",@progbits,_ZNSt8optionalIN3bbt6cxxlua6detail6LuaErrEEC5ESt9nullopt_t,comdat
	.align 2
	.weak	_ZNSt8optionalIN3bbt6cxxlua6detail6LuaErrEEC2ESt9nullopt_t
	.type	_ZNSt8optionalIN3bbt6cxxlua6detail6LuaErrEEC2ESt9nullopt_t, @function
_ZNSt8optionalIN3bbt6cxxlua6detail6LuaErrEEC2ESt9nullopt_t:
.LFB5471:
	.cfi_startproc
	endbr64
	pushq	%rbp
	.cfi_def_cfa_offset 16
	.cfi_offset 6, -16
	movq	%rsp, %rbp
	.cfi_def_cfa_register 6
	subq	$16, %rsp
	movq	%rdi, -8(%rbp)
	movq	-8(%rbp), %rax
	movq	%rax, %rdi
	call	_ZNSt14_Optional_baseIN3bbt6cxxlua6detail6LuaErrELb0ELb0EEC2Ev
	nop
	leave
	.cfi_def_cfa 7, 8
	ret
	.cfi_endproc
.LFE5471:
	.size	_ZNSt8optionalIN3bbt6cxxlua6detail6LuaErrEEC2ESt9nullopt_t, .-_ZNSt8optionalIN3bbt6cxxlua6detail6LuaErrEEC2ESt9nullopt_t
	.weak	_ZNSt8optionalIN3bbt6cxxlua6detail6LuaErrEEC1ESt9nullopt_t
	.set	_ZNSt8optionalIN3bbt6cxxlua6detail6LuaErrEEC1ESt9nullopt_t,_ZNSt8optionalIN3bbt6cxxlua6detail6LuaErrEEC2ESt9nullopt_t
	.section	.text._ZNSaINSt7__cxx1112basic_stringIcSt11char_traitsIcESaIcEEEEC2Ev,"axG",@progbits,_ZNSaINSt7__cxx1112basic_stringIcSt11char_traitsIcESaIcEEEEC5Ev,comdat
	.align 2
	.weak	_ZNSaINSt7__cxx1112basic_stringIcSt11char_traitsIcESaIcEEEEC2Ev
	.type	_ZNSaINSt7__cxx1112basic_stringIcSt11char_traitsIcESaIcEEEEC2Ev, @function
_ZNSaINSt7__cxx1112basic_stringIcSt11char_traitsIcESaIcEEEEC2Ev:
.LFB5474:
	.cfi_startproc
	endbr64
	pushq	%rbp
	.cfi_def_cfa_offset 16
	.cfi_offset 6, -16
	movq	%rsp, %rbp
	.cfi_def_cfa_register 6
	subq	$16, %rsp
	movq	%rdi, -8(%rbp)
	movq	-8(%rbp), %rax
	movq	%rax, %rdi
	call	_ZN9__gnu_cxx13new_allocatorINSt7__cxx1112basic_stringIcSt11char_traitsIcESaIcEEEEC2Ev
	nop
	leave
	.cfi_def_cfa 7, 8
	ret
	.cfi_endproc
.LFE5474:
	.size	_ZNSaINSt7__cxx1112basic_stringIcSt11char_traitsIcESaIcEEEEC2Ev, .-_ZNSaINSt7__cxx1112basic_stringIcSt11char_traitsIcESaIcEEEEC2Ev
	.weak	_ZNSaINSt7__cxx1112basic_stringIcSt11char_traitsIcESaIcEEEEC1Ev
	.set	_ZNSaINSt7__cxx1112basic_stringIcSt11char_traitsIcESaIcEEEEC1Ev,_ZNSaINSt7__cxx1112basic_stringIcSt11char_traitsIcESaIcEEEEC2Ev
	.section	.text._ZNSaINSt7__cxx1112basic_stringIcSt11char_traitsIcESaIcEEEED2Ev,"axG",@progbits,_ZNSaINSt7__cxx1112basic_stringIcSt11char_traitsIcESaIcEEEED5Ev,comdat
	.align 2
	.weak	_ZNSaINSt7__cxx1112basic_stringIcSt11char_traitsIcESaIcEEEED2Ev
	.type	_ZNSaINSt7__cxx1112basic_stringIcSt11char_traitsIcESaIcEEEED2Ev, @function
_ZNSaINSt7__cxx1112basic_stringIcSt11char_traitsIcESaIcEEEED2Ev:
.LFB5477:
	.cfi_startproc
	endbr64
	pushq	%rbp
	.cfi_def_cfa_offset 16
	.cfi_offset 6, -16
	movq	%rsp, %rbp
	.cfi_def_cfa_register 6
	subq	$16, %rsp
	movq	%rdi, -8(%rbp)
	movq	-8(%rbp), %rax
	movq	%rax, %rdi
	call	_ZN9__gnu_cxx13new_allocatorINSt7__cxx1112basic_stringIcSt11char_traitsIcESaIcEEEED2Ev
	nop
	leave
	.cfi_def_cfa 7, 8
	ret
	.cfi_endproc
.LFE5477:
	.size	_ZNSaINSt7__cxx1112basic_stringIcSt11char_traitsIcESaIcEEEED2Ev, .-_ZNSaINSt7__cxx1112basic_stringIcSt11char_traitsIcESaIcEEEED2Ev
	.weak	_ZNSaINSt7__cxx1112basic_stringIcSt11char_traitsIcESaIcEEEED1Ev
	.set	_ZNSaINSt7__cxx1112basic_stringIcSt11char_traitsIcESaIcEEEED1Ev,_ZNSaINSt7__cxx1112basic_stringIcSt11char_traitsIcESaIcEEEED2Ev
	.section	.text._ZNSt6vectorINSt7__cxx1112basic_stringIcSt11char_traitsIcESaIcEEESaIS5_EEC2ESt16initializer_listIS5_ERKS6_,"axG",@progbits,_ZNSt6vectorINSt7__cxx1112basic_stringIcSt11char_traitsIcESaIcEEESaIS5_EEC5ESt16initializer_listIS5_ERKS6_,comdat
	.align 2
	.weak	_ZNSt6vectorINSt7__cxx1112basic_stringIcSt11char_traitsIcESaIcEEESaIS5_EEC2ESt16initializer_listIS5_ERKS6_
	.type	_ZNSt6vectorINSt7__cxx1112basic_stringIcSt11char_traitsIcESaIcEEESaIS5_EEC2ESt16initializer_listIS5_ERKS6_, @function
_ZNSt6vectorINSt7__cxx1112basic_stringIcSt11char_traitsIcESaIcEEESaIS5_EEC2ESt16initializer_listIS5_ERKS6_:
.LFB5480:
	.cfi_startproc
	.cfi_personality 0x9b,DW.ref.__gxx_personality_v0
	.cfi_lsda 0x1b,.LLSDA5480
	endbr64
	pushq	%rbp
	.cfi_def_cfa_offset 16
	.cfi_offset 6, -16
	movq	%rsp, %rbp
	.cfi_def_cfa_register 6
	pushq	%rbx
	subq	$56, %rsp
	.cfi_offset 3, -24
	movq	%rdi, -40(%rbp)
	movq	%rsi, %rax
	movq	%rdx, %rsi
	movq	%rsi, %rdx
	movq	%rax, -64(%rbp)
	movq	%rdx, -56(%rbp)
	movq	%rcx, -48(%rbp)
	movq	%fs:40, %rax
	movq	%rax, -24(%rbp)
	xorl	%eax, %eax
	movq	-40(%rbp), %rax
	movq	-48(%rbp), %rdx
	movq	%rdx, %rsi
	movq	%rax, %rdi
	call	_ZNSt12_Vector_baseINSt7__cxx1112basic_stringIcSt11char_traitsIcESaIcEEESaIS5_EEC2ERKS6_
	leaq	-64(%rbp), %rax
	movq	%rax, %rdi
	call	_ZNKSt16initializer_listINSt7__cxx1112basic_stringIcSt11char_traitsIcESaIcEEEE3endEv
	movq	%rax, %rbx
	leaq	-64(%rbp), %rax
	movq	%rax, %rdi
	call	_ZNKSt16initializer_listINSt7__cxx1112basic_stringIcSt11char_traitsIcESaIcEEEE5beginEv
	movq	%rax, %rcx
	movq	-40(%rbp), %rax
	movq	%rbx, %rdx
	movq	%rcx, %rsi
	movq	%rax, %rdi
.LEHB79:
	call	_ZNSt6vectorINSt7__cxx1112basic_stringIcSt11char_traitsIcESaIcEEESaIS5_EE19_M_range_initializeIPKS5_EEvT_SB_St20forward_iterator_tag
.LEHE79:
	jmp	.L432
.L431:
	endbr64
	movq	%rax, %rbx
	movq	-40(%rbp), %rax
	movq	%rax, %rdi
	call	_ZNSt12_Vector_baseINSt7__cxx1112basic_stringIcSt11char_traitsIcESaIcEEESaIS5_EED2Ev
	movq	%rbx, %rax
	movq	%rax, %rdi
.LEHB80:
	call	_Unwind_Resume@PLT
.LEHE80:
.L432:
	movq	-24(%rbp), %rax
	subq	%fs:40, %rax
	je	.L430
	call	__stack_chk_fail@PLT
.L430:
	movq	-8(%rbp), %rbx
	leave
	.cfi_def_cfa 7, 8
	ret
	.cfi_endproc
.LFE5480:
	.section	.gcc_except_table
.LLSDA5480:
	.byte	0xff
	.byte	0xff
	.byte	0x1
	.uleb128 .LLSDACSE5480-.LLSDACSB5480
.LLSDACSB5480:
	.uleb128 .LEHB79-.LFB5480
	.uleb128 .LEHE79-.LEHB79
	.uleb128 .L431-.LFB5480
	.uleb128 0
	.uleb128 .LEHB80-.LFB5480
	.uleb128 .LEHE80-.LEHB80
	.uleb128 0
	.uleb128 0
.LLSDACSE5480:
	.section	.text._ZNSt6vectorINSt7__cxx1112basic_stringIcSt11char_traitsIcESaIcEEESaIS5_EEC2ESt16initializer_listIS5_ERKS6_,"axG",@progbits,_ZNSt6vectorINSt7__cxx1112basic_stringIcSt11char_traitsIcESaIcEEESaIS5_EEC5ESt16initializer_listIS5_ERKS6_,comdat
	.size	_ZNSt6vectorINSt7__cxx1112basic_stringIcSt11char_traitsIcESaIcEEESaIS5_EEC2ESt16initializer_listIS5_ERKS6_, .-_ZNSt6vectorINSt7__cxx1112basic_stringIcSt11char_traitsIcESaIcEEESaIS5_EEC2ESt16initializer_listIS5_ERKS6_
	.weak	_ZNSt6vectorINSt7__cxx1112basic_stringIcSt11char_traitsIcESaIcEEESaIS5_EEC1ESt16initializer_listIS5_ERKS6_
	.set	_ZNSt6vectorINSt7__cxx1112basic_stringIcSt11char_traitsIcESaIcEEESaIS5_EEC1ESt16initializer_listIS5_ERKS6_,_ZNSt6vectorINSt7__cxx1112basic_stringIcSt11char_traitsIcESaIcEEESaIS5_EEC2ESt16initializer_listIS5_ERKS6_
	.section	.text._ZNSt6vectorINSt7__cxx1112basic_stringIcSt11char_traitsIcESaIcEEESaIS5_EED2Ev,"axG",@progbits,_ZNSt6vectorINSt7__cxx1112basic_stringIcSt11char_traitsIcESaIcEEESaIS5_EED5Ev,comdat
	.align 2
	.weak	_ZNSt6vectorINSt7__cxx1112basic_stringIcSt11char_traitsIcESaIcEEESaIS5_EED2Ev
	.type	_ZNSt6vectorINSt7__cxx1112basic_stringIcSt11char_traitsIcESaIcEEESaIS5_EED2Ev, @function
_ZNSt6vectorINSt7__cxx1112basic_stringIcSt11char_traitsIcESaIcEEESaIS5_EED2Ev:
.LFB5483:
	.cfi_startproc
	.cfi_personality 0x9b,DW.ref.__gxx_personality_v0
	.cfi_lsda 0x1b,.LLSDA5483
	endbr64
	pushq	%rbp
	.cfi_def_cfa_offset 16
	.cfi_offset 6, -16
	movq	%rsp, %rbp
	.cfi_def_cfa_register 6
	subq	$16, %rsp
	movq	%rdi, -8(%rbp)
	movq	-8(%rbp), %rax
	movq	%rax, %rdi
	call	_ZNSt12_Vector_baseINSt7__cxx1112basic_stringIcSt11char_traitsIcESaIcEEESaIS5_EE19_M_get_Tp_allocatorEv
	movq	%rax, %rdx
	movq	-8(%rbp), %rax
	movq	8(%rax), %rcx
	movq	-8(%rbp), %rax
	movq	(%rax), %rax
	movq	%rcx, %rsi
	movq	%rax, %rdi
	call	_ZSt8_DestroyIPNSt7__cxx1112basic_stringIcSt11char_traitsIcESaIcEEES5_EvT_S7_RSaIT0_E
	movq	-8(%rbp), %rax
	movq	%rax, %rdi
	call	_ZNSt12_Vector_baseINSt7__cxx1112basic_stringIcSt11char_traitsIcESaIcEEESaIS5_EED2Ev
	nop
	leave
	.cfi_def_cfa 7, 8
	ret
	.cfi_endproc
.LFE5483:
	.section	.gcc_except_table
.LLSDA5483:
	.byte	0xff
	.byte	0xff
	.byte	0x1
	.uleb128 .LLSDACSE5483-.LLSDACSB5483
.LLSDACSB5483:
.LLSDACSE5483:
	.section	.text._ZNSt6vectorINSt7__cxx1112basic_stringIcSt11char_traitsIcESaIcEEESaIS5_EED2Ev,"axG",@progbits,_ZNSt6vectorINSt7__cxx1112basic_stringIcSt11char_traitsIcESaIcEEESaIS5_EED5Ev,comdat
	.size	_ZNSt6vectorINSt7__cxx1112basic_stringIcSt11char_traitsIcESaIcEEESaIS5_EED2Ev, .-_ZNSt6vectorINSt7__cxx1112basic_stringIcSt11char_traitsIcESaIcEEESaIS5_EED2Ev
	.weak	_ZNSt6vectorINSt7__cxx1112basic_stringIcSt11char_traitsIcESaIcEEESaIS5_EED1Ev
	.set	_ZNSt6vectorINSt7__cxx1112basic_stringIcSt11char_traitsIcESaIcEEESaIS5_EED1Ev,_ZNSt6vectorINSt7__cxx1112basic_stringIcSt11char_traitsIcESaIcEEESaIS5_EED2Ev
	.section	.text._ZNSt6vectorINSt7__cxx1112basic_stringIcSt11char_traitsIcESaIcEEESaIS5_EE5beginEv,"axG",@progbits,_ZNSt6vectorINSt7__cxx1112basic_stringIcSt11char_traitsIcESaIcEEESaIS5_EE5beginEv,comdat
	.align 2
	.weak	_ZNSt6vectorINSt7__cxx1112basic_stringIcSt11char_traitsIcESaIcEEESaIS5_EE5beginEv
	.type	_ZNSt6vectorINSt7__cxx1112basic_stringIcSt11char_traitsIcESaIcEEESaIS5_EE5beginEv, @function
_ZNSt6vectorINSt7__cxx1112basic_stringIcSt11char_traitsIcESaIcEEESaIS5_EE5beginEv:
.LFB5485:
	.cfi_startproc
	endbr64
	pushq	%rbp
	.cfi_def_cfa_offset 16
	.cfi_offset 6, -16
	movq	%rsp, %rbp
	.cfi_def_cfa_register 6
	subq	$32, %rsp
	movq	%rdi, -24(%rbp)
	movq	%fs:40, %rax
	movq	%rax, -8(%rbp)
	xorl	%eax, %eax
	movq	-24(%rbp), %rdx
	leaq	-16(%rbp), %rax
	movq	%rdx, %rsi
	movq	%rax, %rdi
	call	_ZN9__gnu_cxx17__normal_iteratorIPNSt7__cxx1112basic_stringIcSt11char_traitsIcESaIcEEESt6vectorIS6_SaIS6_EEEC1ERKS7_
	movq	-16(%rbp), %rax
	movq	-8(%rbp), %rdx
	subq	%fs:40, %rdx
	je	.L436
	call	__stack_chk_fail@PLT
.L436:
	leave
	.cfi_def_cfa 7, 8
	ret
	.cfi_endproc
.LFE5485:
	.size	_ZNSt6vectorINSt7__cxx1112basic_stringIcSt11char_traitsIcESaIcEEESaIS5_EE5beginEv, .-_ZNSt6vectorINSt7__cxx1112basic_stringIcSt11char_traitsIcESaIcEEESaIS5_EE5beginEv
	.section	.text._ZNSt6vectorINSt7__cxx1112basic_stringIcSt11char_traitsIcESaIcEEESaIS5_EE3endEv,"axG",@progbits,_ZNSt6vectorINSt7__cxx1112basic_stringIcSt11char_traitsIcESaIcEEESaIS5_EE3endEv,comdat
	.align 2
	.weak	_ZNSt6vectorINSt7__cxx1112basic_stringIcSt11char_traitsIcESaIcEEESaIS5_EE3endEv
	.type	_ZNSt6vectorINSt7__cxx1112basic_stringIcSt11char_traitsIcESaIcEEESaIS5_EE3endEv, @function
_ZNSt6vectorINSt7__cxx1112basic_stringIcSt11char_traitsIcESaIcEEESaIS5_EE3endEv:
.LFB5486:
	.cfi_startproc
	endbr64
	pushq	%rbp
	.cfi_def_cfa_offset 16
	.cfi_offset 6, -16
	movq	%rsp, %rbp
	.cfi_def_cfa_register 6
	subq	$32, %rsp
	movq	%rdi, -24(%rbp)
	movq	%fs:40, %rax
	movq	%rax, -8(%rbp)
	xorl	%eax, %eax
	movq	-24(%rbp), %rax
	leaq	8(%rax), %rdx
	leaq	-16(%rbp), %rax
	movq	%rdx, %rsi
	movq	%rax, %rdi
	call	_ZN9__gnu_cxx17__normal_iteratorIPNSt7__cxx1112basic_stringIcSt11char_traitsIcESaIcEEESt6vectorIS6_SaIS6_EEEC1ERKS7_
	movq	-16(%rbp), %rax
	movq	-8(%rbp), %rdx
	subq	%fs:40, %rdx
	je	.L439
	call	__stack_chk_fail@PLT
.L439:
	leave
	.cfi_def_cfa 7, 8
	ret
	.cfi_endproc
.LFE5486:
	.size	_ZNSt6vectorINSt7__cxx1112basic_stringIcSt11char_traitsIcESaIcEEESaIS5_EE3endEv, .-_ZNSt6vectorINSt7__cxx1112basic_stringIcSt11char_traitsIcESaIcEEESaIS5_EE3endEv
	.section	.text._ZN9__gnu_cxxneIPNSt7__cxx1112basic_stringIcSt11char_traitsIcESaIcEEESt6vectorIS6_SaIS6_EEEEbRKNS_17__normal_iteratorIT_T0_EESG_,"axG",@progbits,_ZN9__gnu_cxxneIPNSt7__cxx1112basic_stringIcSt11char_traitsIcESaIcEEESt6vectorIS6_SaIS6_EEEEbRKNS_17__normal_iteratorIT_T0_EESG_,comdat
	.weak	_ZN9__gnu_cxxneIPNSt7__cxx1112basic_stringIcSt11char_traitsIcESaIcEEESt6vectorIS6_SaIS6_EEEEbRKNS_17__normal_iteratorIT_T0_EESG_
	.type	_ZN9__gnu_cxxneIPNSt7__cxx1112basic_stringIcSt11char_traitsIcESaIcEEESt6vectorIS6_SaIS6_EEEEbRKNS_17__normal_iteratorIT_T0_EESG_, @function
_ZN9__gnu_cxxneIPNSt7__cxx1112basic_stringIcSt11char_traitsIcESaIcEEESt6vectorIS6_SaIS6_EEEEbRKNS_17__normal_iteratorIT_T0_EESG_:
.LFB5487:
	.cfi_startproc
	endbr64
	pushq	%rbp
	.cfi_def_cfa_offset 16
	.cfi_offset 6, -16
	movq	%rsp, %rbp
	.cfi_def_cfa_register 6
	pushq	%rbx
	subq	$24, %rsp
	.cfi_offset 3, -24
	movq	%rdi, -24(%rbp)
	movq	%rsi, -32(%rbp)
	movq	-24(%rbp), %rax
	movq	%rax, %rdi
	call	_ZNK9__gnu_cxx17__normal_iteratorIPNSt7__cxx1112basic_stringIcSt11char_traitsIcESaIcEEESt6vectorIS6_SaIS6_EEE4baseEv
	movq	(%rax), %rbx
	movq	-32(%rbp), %rax
	movq	%rax, %rdi
	call	_ZNK9__gnu_cxx17__normal_iteratorIPNSt7__cxx1112basic_stringIcSt11char_traitsIcESaIcEEESt6vectorIS6_SaIS6_EEE4baseEv
	movq	(%rax), %rax
	cmpq	%rax, %rbx
	setne	%al
	movq	-8(%rbp), %rbx
	leave
	.cfi_def_cfa 7, 8
	ret
	.cfi_endproc
.LFE5487:
	.size	_ZN9__gnu_cxxneIPNSt7__cxx1112basic_stringIcSt11char_traitsIcESaIcEEESt6vectorIS6_SaIS6_EEEEbRKNS_17__normal_iteratorIT_T0_EESG_, .-_ZN9__gnu_cxxneIPNSt7__cxx1112basic_stringIcSt11char_traitsIcESaIcEEESt6vectorIS6_SaIS6_EEEEbRKNS_17__normal_iteratorIT_T0_EESG_
	.section	.text._ZN9__gnu_cxx17__normal_iteratorIPNSt7__cxx1112basic_stringIcSt11char_traitsIcESaIcEEESt6vectorIS6_SaIS6_EEEppEv,"axG",@progbits,_ZN9__gnu_cxx17__normal_iteratorIPNSt7__cxx1112basic_stringIcSt11char_traitsIcESaIcEEESt6vectorIS6_SaIS6_EEEppEv,comdat
	.align 2
	.weak	_ZN9__gnu_cxx17__normal_iteratorIPNSt7__cxx1112basic_stringIcSt11char_traitsIcESaIcEEESt6vectorIS6_SaIS6_EEEppEv
	.type	_ZN9__gnu_cxx17__normal_iteratorIPNSt7__cxx1112basic_stringIcSt11char_traitsIcESaIcEEESt6vectorIS6_SaIS6_EEEppEv, @function
_ZN9__gnu_cxx17__normal_iteratorIPNSt7__cxx1112basic_stringIcSt11char_traitsIcESaIcEEESt6vectorIS6_SaIS6_EEEppEv:
.LFB5488:
	.cfi_startproc
	endbr64
	pushq	%rbp
	.cfi_def_cfa_offset 16
	.cfi_offset 6, -16
	movq	%rsp, %rbp
	.cfi_def_cfa_register 6
	movq	%rdi, -8(%rbp)
	movq	-8(%rbp), %rax
	movq	(%rax), %rax
	leaq	32(%rax), %rdx
	movq	-8(%rbp), %rax
	movq	%rdx, (%rax)
	movq	-8(%rbp), %rax
	popq	%rbp
	.cfi_def_cfa 7, 8
	ret
	.cfi_endproc
.LFE5488:
	.size	_ZN9__gnu_cxx17__normal_iteratorIPNSt7__cxx1112basic_stringIcSt11char_traitsIcESaIcEEESt6vectorIS6_SaIS6_EEEppEv, .-_ZN9__gnu_cxx17__normal_iteratorIPNSt7__cxx1112basic_stringIcSt11char_traitsIcESaIcEEESt6vectorIS6_SaIS6_EEEppEv
	.section	.text._ZNK9__gnu_cxx17__normal_iteratorIPNSt7__cxx1112basic_stringIcSt11char_traitsIcESaIcEEESt6vectorIS6_SaIS6_EEEdeEv,"axG",@progbits,_ZNK9__gnu_cxx17__normal_iteratorIPNSt7__cxx1112basic_stringIcSt11char_traitsIcESaIcEEESt6vectorIS6_SaIS6_EEEdeEv,comdat
	.align 2
	.weak	_ZNK9__gnu_cxx17__normal_iteratorIPNSt7__cxx1112basic_stringIcSt11char_traitsIcESaIcEEESt6vectorIS6_SaIS6_EEEdeEv
	.type	_ZNK9__gnu_cxx17__normal_iteratorIPNSt7__cxx1112basic_stringIcSt11char_traitsIcESaIcEEESt6vectorIS6_SaIS6_EEEdeEv, @function
_ZNK9__gnu_cxx17__normal_iteratorIPNSt7__cxx1112basic_stringIcSt11char_traitsIcESaIcEEESt6vectorIS6_SaIS6_EEEdeEv:
.LFB5489:
	.cfi_startproc
	endbr64
	pushq	%rbp
	.cfi_def_cfa_offset 16
	.cfi_offset 6, -16
	movq	%rsp, %rbp
	.cfi_def_cfa_register 6
	movq	%rdi, -8(%rbp)
	movq	-8(%rbp), %rax
	movq	(%rax), %rax
	popq	%rbp
	.cfi_def_cfa 7, 8
	ret
	.cfi_endproc
.LFE5489:
	.size	_ZNK9__gnu_cxx17__normal_iteratorIPNSt7__cxx1112basic_stringIcSt11char_traitsIcESaIcEEESt6vectorIS6_SaIS6_EEEdeEv, .-_ZNK9__gnu_cxx17__normal_iteratorIPNSt7__cxx1112basic_stringIcSt11char_traitsIcESaIcEEESt6vectorIS6_SaIS6_EEEdeEv
	.section	.text._ZStneIN3bbt6cxxlua6detail6LuaErrEEbRKSt8optionalIT_ESt9nullopt_t,"axG",@progbits,_ZStneIN3bbt6cxxlua6detail6LuaErrEEbRKSt8optionalIT_ESt9nullopt_t,comdat
	.weak	_ZStneIN3bbt6cxxlua6detail6LuaErrEEbRKSt8optionalIT_ESt9nullopt_t
	.type	_ZStneIN3bbt6cxxlua6detail6LuaErrEEbRKSt8optionalIT_ESt9nullopt_t, @function
_ZStneIN3bbt6cxxlua6detail6LuaErrEEbRKSt8optionalIT_ESt9nullopt_t:
.LFB5490:
	.cfi_startproc
	endbr64
	pushq	%rbp
	.cfi_def_cfa_offset 16
	.cfi_offset 6, -16
	movq	%rsp, %rbp
	.cfi_def_cfa_register 6
	subq	$16, %rsp
	movq	%rdi, -8(%rbp)
	movq	-8(%rbp), %rax
	movq	%rax, %rdi
	call	_ZNKSt8optionalIN3bbt6cxxlua6detail6LuaErrEEcvbEv
	leave
	.cfi_def_cfa 7, 8
	ret
	.cfi_endproc
.LFE5490:
	.size	_ZStneIN3bbt6cxxlua6detail6LuaErrEEbRKSt8optionalIT_ESt9nullopt_t, .-_ZStneIN3bbt6cxxlua6detail6LuaErrEEbRKSt8optionalIT_ESt9nullopt_t
	.section	.text._ZNSt17_Optional_payloadIN3bbt6cxxlua6detail6LuaErrELb1ELb0ELb0EECI2St22_Optional_payload_baseIS3_EEbOS6_,"axG",@progbits,_ZNSt17_Optional_payloadIN3bbt6cxxlua6detail6LuaErrELb1ELb0ELb0EECI5St22_Optional_payload_baseIS3_EEbOS6_,comdat
	.align 2
	.weak	_ZNSt17_Optional_payloadIN3bbt6cxxlua6detail6LuaErrELb1ELb0ELb0EECI2St22_Optional_payload_baseIS3_EEbOS6_
	.type	_ZNSt17_Optional_payloadIN3bbt6cxxlua6detail6LuaErrELb1ELb0ELb0EECI2St22_Optional_payload_baseIS3_EEbOS6_, @function
_ZNSt17_Optional_payloadIN3bbt6cxxlua6detail6LuaErrELb1ELb0ELb0EECI2St22_Optional_payload_baseIS3_EEbOS6_:
.LFB5494:
	.cfi_startproc
	endbr64
	pushq	%rbp
	.cfi_def_cfa_offset 16
	.cfi_offset 6, -16
	movq	%rsp, %rbp
	.cfi_def_cfa_register 6
	subq	$32, %rsp
	movq	%rdi, -8(%rbp)
	movl	%esi, %eax
	movq	%rdx, -24(%rbp)
	movb	%al, -12(%rbp)
	movq	-8(%rbp), %rax
	movzbl	-12(%rbp), %edx
	movzbl	%dl, %ecx
	movq	-24(%rbp), %rdx
	movl	%ecx, %esi
	movq	%rax, %rdi
	call	_ZNSt22_Optional_payload_baseIN3bbt6cxxlua6detail6LuaErrEEC2EbOS4_
	nop
	leave
	.cfi_def_cfa 7, 8
	ret
	.cfi_endproc
.LFE5494:
	.size	_ZNSt17_Optional_payloadIN3bbt6cxxlua6detail6LuaErrELb1ELb0ELb0EECI2St22_Optional_payload_baseIS3_EEbOS6_, .-_ZNSt17_Optional_payloadIN3bbt6cxxlua6detail6LuaErrELb1ELb0ELb0EECI2St22_Optional_payload_baseIS3_EEbOS6_
	.weak	_ZNSt17_Optional_payloadIN3bbt6cxxlua6detail6LuaErrELb1ELb0ELb0EECI1St22_Optional_payload_baseIS3_EEbOS6_
	.set	_ZNSt17_Optional_payloadIN3bbt6cxxlua6detail6LuaErrELb1ELb0ELb0EECI1St22_Optional_payload_baseIS3_EEbOS6_,_ZNSt17_Optional_payloadIN3bbt6cxxlua6detail6LuaErrELb1ELb0ELb0EECI2St22_Optional_payload_baseIS3_EEbOS6_
	.section	.text._ZNSt17_Optional_payloadIN3bbt6cxxlua6detail6LuaErrELb0ELb0ELb0EECI2St22_Optional_payload_baseIS3_EEbOS6_,"axG",@progbits,_ZNSt17_Optional_payloadIN3bbt6cxxlua6detail6LuaErrELb0ELb0ELb0EECI5St22_Optional_payload_baseIS3_EEbOS6_,comdat
	.align 2
	.weak	_ZNSt17_Optional_payloadIN3bbt6cxxlua6detail6LuaErrELb0ELb0ELb0EECI2St22_Optional_payload_baseIS3_EEbOS6_
	.type	_ZNSt17_Optional_payloadIN3bbt6cxxlua6detail6LuaErrELb0ELb0ELb0EECI2St22_Optional_payload_baseIS3_EEbOS6_, @function
_ZNSt17_Optional_payloadIN3bbt6cxxlua6detail6LuaErrELb0ELb0ELb0EECI2St22_Optional_payload_baseIS3_EEbOS6_:
.LFB5496:
	.cfi_startproc
	endbr64
	pushq	%rbp
	.cfi_def_cfa_offset 16
	.cfi_offset 6, -16
	movq	%rsp, %rbp
	.cfi_def_cfa_register 6
	subq	$32, %rsp
	movq	%rdi, -8(%rbp)
	movl	%esi, %eax
	movq	%rdx, -24(%rbp)
	movb	%al, -12(%rbp)
	movq	-8(%rbp), %rax
	movzbl	-12(%rbp), %edx
	movzbl	%dl, %ecx
	movq	-24(%rbp), %rdx
	movl	%ecx, %esi
	movq	%rax, %rdi
	call	_ZNSt17_Optional_payloadIN3bbt6cxxlua6detail6LuaErrELb1ELb0ELb0EECI2St22_Optional_payload_baseIS3_EEbOS6_
	nop
	leave
	.cfi_def_cfa 7, 8
	ret
	.cfi_endproc
.LFE5496:
	.size	_ZNSt17_Optional_payloadIN3bbt6cxxlua6detail6LuaErrELb0ELb0ELb0EECI2St22_Optional_payload_baseIS3_EEbOS6_, .-_ZNSt17_Optional_payloadIN3bbt6cxxlua6detail6LuaErrELb0ELb0ELb0EECI2St22_Optional_payload_baseIS3_EEbOS6_
	.weak	_ZNSt17_Optional_payloadIN3bbt6cxxlua6detail6LuaErrELb0ELb0ELb0EECI1St22_Optional_payload_baseIS3_EEbOS6_
	.set	_ZNSt17_Optional_payloadIN3bbt6cxxlua6detail6LuaErrELb0ELb0ELb0EECI1St22_Optional_payload_baseIS3_EEbOS6_,_ZNSt17_Optional_payloadIN3bbt6cxxlua6detail6LuaErrELb0ELb0ELb0EECI2St22_Optional_payload_baseIS3_EEbOS6_
	.section	.text._ZSt4moveIRSt17_Optional_payloadIN3bbt6cxxlua6detail6LuaErrELb0ELb0ELb0EEEONSt16remove_referenceIT_E4typeEOS8_,"axG",@progbits,_ZSt4moveIRSt17_Optional_payloadIN3bbt6cxxlua6detail6LuaErrELb0ELb0ELb0EEEONSt16remove_referenceIT_E4typeEOS8_,comdat
	.weak	_ZSt4moveIRSt17_Optional_payloadIN3bbt6cxxlua6detail6LuaErrELb0ELb0ELb0EEEONSt16remove_referenceIT_E4typeEOS8_
	.type	_ZSt4moveIRSt17_Optional_payloadIN3bbt6cxxlua6detail6LuaErrELb0ELb0ELb0EEEONSt16remove_referenceIT_E4typeEOS8_, @function
_ZSt4moveIRSt17_Optional_payloadIN3bbt6cxxlua6detail6LuaErrELb0ELb0ELb0EEEONSt16remove_referenceIT_E4typeEOS8_:
.LFB5498:
	.cfi_startproc
	endbr64
	pushq	%rbp
	.cfi_def_cfa_offset 16
	.cfi_offset 6, -16
	movq	%rsp, %rbp
	.cfi_def_cfa_register 6
	movq	%rdi, -8(%rbp)
	movq	-8(%rbp), %rax
	popq	%rbp
	.cfi_def_cfa 7, 8
	ret
	.cfi_endproc
.LFE5498:
	.size	_ZSt4moveIRSt17_Optional_payloadIN3bbt6cxxlua6detail6LuaErrELb0ELb0ELb0EEEONSt16remove_referenceIT_E4typeEOS8_, .-_ZSt4moveIRSt17_Optional_payloadIN3bbt6cxxlua6detail6LuaErrELb0ELb0ELb0EEEONSt16remove_referenceIT_E4typeEOS8_
	.section	.text._ZNSt14_Optional_baseIN3bbt6cxxlua6detail6LuaErrELb0ELb0EEC2EOS4_,"axG",@progbits,_ZNSt14_Optional_baseIN3bbt6cxxlua6detail6LuaErrELb0ELb0EEC5EOS4_,comdat
	.align 2
	.weak	_ZNSt14_Optional_baseIN3bbt6cxxlua6detail6LuaErrELb0ELb0EEC2EOS4_
	.type	_ZNSt14_Optional_baseIN3bbt6cxxlua6detail6LuaErrELb0ELb0EEC2EOS4_, @function
_ZNSt14_Optional_baseIN3bbt6cxxlua6detail6LuaErrELb0ELb0EEC2EOS4_:
.LFB5499:
	.cfi_startproc
	endbr64
	pushq	%rbp
	.cfi_def_cfa_offset 16
	.cfi_offset 6, -16
	movq	%rsp, %rbp
	.cfi_def_cfa_register 6
	pushq	%rbx
	subq	$24, %rsp
	.cfi_offset 3, -24
	movq	%rdi, -24(%rbp)
	movq	%rsi, -32(%rbp)
	movq	-24(%rbp), %rbx
	movq	-32(%rbp), %rax
	movq	%rax, %rdi
	call	_ZSt4moveIRSt17_Optional_payloadIN3bbt6cxxlua6detail6LuaErrELb0ELb0ELb0EEEONSt16remove_referenceIT_E4typeEOS8_
	movq	%rax, %rdx
	movq	-32(%rbp), %rax
	movzbl	48(%rax), %eax
	movzbl	%al, %eax
	movl	%eax, %esi
	movq	%rbx, %rdi
	call	_ZNSt17_Optional_payloadIN3bbt6cxxlua6detail6LuaErrELb0ELb0ELb0EECI1St22_Optional_payload_baseIS3_EEbOS6_
	nop
	movq	-8(%rbp), %rbx
	leave
	.cfi_def_cfa 7, 8
	ret
	.cfi_endproc
.LFE5499:
	.size	_ZNSt14_Optional_baseIN3bbt6cxxlua6detail6LuaErrELb0ELb0EEC2EOS4_, .-_ZNSt14_Optional_baseIN3bbt6cxxlua6detail6LuaErrELb0ELb0EEC2EOS4_
	.weak	_ZNSt14_Optional_baseIN3bbt6cxxlua6detail6LuaErrELb0ELb0EEC1EOS4_
	.set	_ZNSt14_Optional_baseIN3bbt6cxxlua6detail6LuaErrELb0ELb0EEC1EOS4_,_ZNSt14_Optional_baseIN3bbt6cxxlua6detail6LuaErrELb0ELb0EEC2EOS4_
	.section	.text._ZSt7forwardIN3bbt6cxxlua6detail6LuaErrEEOT_RNSt16remove_referenceIS4_E4typeE,"axG",@progbits,_ZSt7forwardIN3bbt6cxxlua6detail6LuaErrEEOT_RNSt16remove_referenceIS4_E4typeE,comdat
	.weak	_ZSt7forwardIN3bbt6cxxlua6detail6LuaErrEEOT_RNSt16remove_referenceIS4_E4typeE
	.type	_ZSt7forwardIN3bbt6cxxlua6detail6LuaErrEEOT_RNSt16remove_referenceIS4_E4typeE, @function
_ZSt7forwardIN3bbt6cxxlua6detail6LuaErrEEOT_RNSt16remove_referenceIS4_E4typeE:
.LFB5502:
	.cfi_startproc
	endbr64
	pushq	%rbp
	.cfi_def_cfa_offset 16
	.cfi_offset 6, -16
	movq	%rsp, %rbp
	.cfi_def_cfa_register 6
	movq	%rdi, -8(%rbp)
	movq	-8(%rbp), %rax
	popq	%rbp
	.cfi_def_cfa 7, 8
	ret
	.cfi_endproc
.LFE5502:
	.size	_ZSt7forwardIN3bbt6cxxlua6detail6LuaErrEEOT_RNSt16remove_referenceIS4_E4typeE, .-_ZSt7forwardIN3bbt6cxxlua6detail6LuaErrEEOT_RNSt16remove_referenceIS4_E4typeE
	.section	.text._ZNSt4pairISt8optionalIN3bbt6cxxlua6detail6LuaErrEENS3_7LUATYPEEEC2IS4_S6_Lb1EEEOT_OT0_,"axG",@progbits,_ZNSt4pairISt8optionalIN3bbt6cxxlua6detail6LuaErrEENS3_7LUATYPEEEC5IS4_S6_Lb1EEEOT_OT0_,comdat
	.align 2
	.weak	_ZNSt4pairISt8optionalIN3bbt6cxxlua6detail6LuaErrEENS3_7LUATYPEEEC2IS4_S6_Lb1EEEOT_OT0_
	.type	_ZNSt4pairISt8optionalIN3bbt6cxxlua6detail6LuaErrEENS3_7LUATYPEEEC2IS4_S6_Lb1EEEOT_OT0_, @function
_ZNSt4pairISt8optionalIN3bbt6cxxlua6detail6LuaErrEENS3_7LUATYPEEEC2IS4_S6_Lb1EEEOT_OT0_:
.LFB5503:
	.cfi_startproc
	endbr64
	pushq	%rbp
	.cfi_def_cfa_offset 16
	.cfi_offset 6, -16
	movq	%rsp, %rbp
	.cfi_def_cfa_register 6
	pushq	%rbx
	subq	$40, %rsp
	.cfi_offset 3, -24
	movq	%rdi, -24(%rbp)
	movq	%rsi, -32(%rbp)
	movq	%rdx, -40(%rbp)
	movq	-24(%rbp), %rbx
	movq	-32(%rbp), %rax
	movq	%rax, %rdi
	call	_ZSt7forwardIN3bbt6cxxlua6detail6LuaErrEEOT_RNSt16remove_referenceIS4_E4typeE
	movq	%rax, %rsi
	movq	%rbx, %rdi
	call	_ZNSt8optionalIN3bbt6cxxlua6detail6LuaErrEEC1IS3_Lb1EEEOT_
	movq	-40(%rbp), %rax
	movq	%rax, %rdi
	call	_ZSt7forwardIN3bbt6cxxlua6detail7LUATYPEEEOT_RNSt16remove_referenceIS4_E4typeE
	movl	(%rax), %edx
	movq	-24(%rbp), %rax
	movl	%edx, 56(%rax)
	nop
	movq	-8(%rbp), %rbx
	leave
	.cfi_def_cfa 7, 8
	ret
	.cfi_endproc
.LFE5503:
	.size	_ZNSt4pairISt8optionalIN3bbt6cxxlua6detail6LuaErrEENS3_7LUATYPEEEC2IS4_S6_Lb1EEEOT_OT0_, .-_ZNSt4pairISt8optionalIN3bbt6cxxlua6detail6LuaErrEENS3_7LUATYPEEEC2IS4_S6_Lb1EEEOT_OT0_
	.weak	_ZNSt4pairISt8optionalIN3bbt6cxxlua6detail6LuaErrEENS3_7LUATYPEEEC1IS4_S6_Lb1EEEOT_OT0_
	.set	_ZNSt4pairISt8optionalIN3bbt6cxxlua6detail6LuaErrEENS3_7LUATYPEEEC1IS4_S6_Lb1EEEOT_OT0_,_ZNSt4pairISt8optionalIN3bbt6cxxlua6detail6LuaErrEENS3_7LUATYPEEEC2IS4_S6_Lb1EEEOT_OT0_
	.section	.text._ZSt7forwardIRKSt9nullopt_tEOT_RNSt16remove_referenceIS3_E4typeE,"axG",@progbits,_ZSt7forwardIRKSt9nullopt_tEOT_RNSt16remove_referenceIS3_E4typeE,comdat
	.weak	_ZSt7forwardIRKSt9nullopt_tEOT_RNSt16remove_referenceIS3_E4typeE
	.type	_ZSt7forwardIRKSt9nullopt_tEOT_RNSt16remove_referenceIS3_E4typeE, @function
_ZSt7forwardIRKSt9nullopt_tEOT_RNSt16remove_referenceIS3_E4typeE:
.LFB5506:
	.cfi_startproc
	endbr64
	pushq	%rbp
	.cfi_def_cfa_offset 16
	.cfi_offset 6, -16
	movq	%rsp, %rbp
	.cfi_def_cfa_register 6
	movq	%rdi, -8(%rbp)
	movq	-8(%rbp), %rax
	popq	%rbp
	.cfi_def_cfa 7, 8
	ret
	.cfi_endproc
.LFE5506:
	.size	_ZSt7forwardIRKSt9nullopt_tEOT_RNSt16remove_referenceIS3_E4typeE, .-_ZSt7forwardIRKSt9nullopt_tEOT_RNSt16remove_referenceIS3_E4typeE
	.section	.text._ZNSt4pairISt8optionalIN3bbt6cxxlua6detail6LuaErrEENS3_7LUATYPEEEC2IRKSt9nullopt_tS6_Lb1EEEOT_OT0_,"axG",@progbits,_ZNSt4pairISt8optionalIN3bbt6cxxlua6detail6LuaErrEENS3_7LUATYPEEEC5IRKSt9nullopt_tS6_Lb1EEEOT_OT0_,comdat
	.align 2
	.weak	_ZNSt4pairISt8optionalIN3bbt6cxxlua6detail6LuaErrEENS3_7LUATYPEEEC2IRKSt9nullopt_tS6_Lb1EEEOT_OT0_
	.type	_ZNSt4pairISt8optionalIN3bbt6cxxlua6detail6LuaErrEENS3_7LUATYPEEEC2IRKSt9nullopt_tS6_Lb1EEEOT_OT0_, @function
_ZNSt4pairISt8optionalIN3bbt6cxxlua6detail6LuaErrEENS3_7LUATYPEEEC2IRKSt9nullopt_tS6_Lb1EEEOT_OT0_:
.LFB5507:
	.cfi_startproc
	endbr64
	pushq	%rbp
	.cfi_def_cfa_offset 16
	.cfi_offset 6, -16
	movq	%rsp, %rbp
	.cfi_def_cfa_register 6
	pushq	%rbx
	subq	$40, %rsp
	.cfi_offset 3, -24
	movq	%rdi, -24(%rbp)
	movq	%rsi, -32(%rbp)
	movq	%rdx, -40(%rbp)
	movq	-24(%rbp), %rbx
	movq	-32(%rbp), %rax
	movq	%rax, %rdi
	call	_ZSt7forwardIRKSt9nullopt_tEOT_RNSt16remove_referenceIS3_E4typeE
	movq	%rbx, %rdi
	call	_ZNSt8optionalIN3bbt6cxxlua6detail6LuaErrEEC1ESt9nullopt_t
	movq	-40(%rbp), %rax
	movq	%rax, %rdi
	call	_ZSt7forwardIN3bbt6cxxlua6detail7LUATYPEEEOT_RNSt16remove_referenceIS4_E4typeE
	movl	(%rax), %edx
	movq	-24(%rbp), %rax
	movl	%edx, 56(%rax)
	nop
	movq	-8(%rbp), %rbx
	leave
	.cfi_def_cfa 7, 8
	ret
	.cfi_endproc
.LFE5507:
	.size	_ZNSt4pairISt8optionalIN3bbt6cxxlua6detail6LuaErrEENS3_7LUATYPEEEC2IRKSt9nullopt_tS6_Lb1EEEOT_OT0_, .-_ZNSt4pairISt8optionalIN3bbt6cxxlua6detail6LuaErrEENS3_7LUATYPEEEC2IRKSt9nullopt_tS6_Lb1EEEOT_OT0_
	.weak	_ZNSt4pairISt8optionalIN3bbt6cxxlua6detail6LuaErrEENS3_7LUATYPEEEC1IRKSt9nullopt_tS6_Lb1EEEOT_OT0_
	.set	_ZNSt4pairISt8optionalIN3bbt6cxxlua6detail6LuaErrEENS3_7LUATYPEEEC1IRKSt9nullopt_tS6_Lb1EEEOT_OT0_,_ZNSt4pairISt8optionalIN3bbt6cxxlua6detail6LuaErrEENS3_7LUATYPEEEC2IRKSt9nullopt_tS6_Lb1EEEOT_OT0_
	.section	.text._ZSt11make_uniqueIN3bbt6cxxlua6detail8LuaStackEJP9lua_StateEENSt9_MakeUniqIT_E15__single_objectEDpOT0_,"axG",@progbits,_ZSt11make_uniqueIN3bbt6cxxlua6detail8LuaStackEJP9lua_StateEENSt9_MakeUniqIT_E15__single_objectEDpOT0_,comdat
	.weak	_ZSt11make_uniqueIN3bbt6cxxlua6detail8LuaStackEJP9lua_StateEENSt9_MakeUniqIT_E15__single_objectEDpOT0_
	.type	_ZSt11make_uniqueIN3bbt6cxxlua6detail8LuaStackEJP9lua_StateEENSt9_MakeUniqIT_E15__single_objectEDpOT0_, @function
_ZSt11make_uniqueIN3bbt6cxxlua6detail8LuaStackEJP9lua_StateEENSt9_MakeUniqIT_E15__single_objectEDpOT0_:
.LFB5509:
	.cfi_startproc
	endbr64
	pushq	%rbp
	.cfi_def_cfa_offset 16
	.cfi_offset 6, -16
	movq	%rsp, %rbp
	.cfi_def_cfa_register 6
	pushq	%r12
	pushq	%rbx
	subq	$16, %rsp
	.cfi_offset 12, -24
	.cfi_offset 3, -32
	movq	%rdi, -24(%rbp)
	movq	%rsi, -32(%rbp)
	movq	-32(%rbp), %rax
	movq	%rax, %rdi
	call	_ZSt7forwardIP9lua_StateEOT_RNSt16remove_referenceIS2_E4typeE
	movq	(%rax), %rbx
	movl	$8, %edi
	call	_Znwm@PLT
	movq	%rax, %r12
	movq	%rbx, %rsi
	movq	%r12, %rdi
	call	_ZN3bbt6cxxlua6detail8LuaStackC1EP9lua_State
	movq	-24(%rbp), %rax
	movq	%r12, %rsi
	movq	%rax, %rdi
	call	_ZNSt10unique_ptrIN3bbt6cxxlua6detail8LuaStackESt14default_deleteIS3_EEC1IS5_vEEPS3_
	movq	-24(%rbp), %rax
	addq	$16, %rsp
	popq	%rbx
	popq	%r12
	popq	%rbp
	.cfi_def_cfa 7, 8
	ret
	.cfi_endproc
.LFE5509:
	.size	_ZSt11make_uniqueIN3bbt6cxxlua6detail8LuaStackEJP9lua_StateEENSt9_MakeUniqIT_E15__single_objectEDpOT0_, .-_ZSt11make_uniqueIN3bbt6cxxlua6detail8LuaStackEJP9lua_StateEENSt9_MakeUniqIT_E15__single_objectEDpOT0_
	.section	.text._ZNSt10unique_ptrIN3bbt6cxxlua6detail8LuaStackESt14default_deleteIS3_EED2Ev,"axG",@progbits,_ZNSt10unique_ptrIN3bbt6cxxlua6detail8LuaStackESt14default_deleteIS3_EED5Ev,comdat
	.align 2
	.weak	_ZNSt10unique_ptrIN3bbt6cxxlua6detail8LuaStackESt14default_deleteIS3_EED2Ev
	.type	_ZNSt10unique_ptrIN3bbt6cxxlua6detail8LuaStackESt14default_deleteIS3_EED2Ev, @function
_ZNSt10unique_ptrIN3bbt6cxxlua6detail8LuaStackESt14default_deleteIS3_EED2Ev:
.LFB5511:
	.cfi_startproc
	endbr64
	pushq	%rbp
	.cfi_def_cfa_offset 16
	.cfi_offset 6, -16
	movq	%rsp, %rbp
	.cfi_def_cfa_register 6
	pushq	%rbx
	subq	$40, %rsp
	.cfi_offset 3, -24
	movq	%rdi, -40(%rbp)
	movq	-40(%rbp), %rax
	movq	%rax, %rdi
	call	_ZNSt15__uniq_ptr_implIN3bbt6cxxlua6detail8LuaStackESt14default_deleteIS3_EE6_M_ptrEv
	movq	%rax, -24(%rbp)
	movq	-24(%rbp), %rax
	movq	(%rax), %rax
	testq	%rax, %rax
	je	.L462
	movq	-40(%rbp), %rax
	movq	%rax, %rdi
	call	_ZNSt10unique_ptrIN3bbt6cxxlua6detail8LuaStackESt14default_deleteIS3_EE11get_deleterEv
	movq	%rax, %rbx
	movq	-24(%rbp), %rax
	movq	%rax, %rdi
	call	_ZSt4moveIRPN3bbt6cxxlua6detail8LuaStackEEONSt16remove_referenceIT_E4typeEOS7_
	movq	(%rax), %rax
	movq	%rax, %rsi
	movq	%rbx, %rdi
	call	_ZNKSt14default_deleteIN3bbt6cxxlua6detail8LuaStackEEclEPS3_
.L462:
	movq	-24(%rbp), %rax
	movq	$0, (%rax)
	nop
	movq	-8(%rbp), %rbx
	leave
	.cfi_def_cfa 7, 8
	ret
	.cfi_endproc
.LFE5511:
	.size	_ZNSt10unique_ptrIN3bbt6cxxlua6detail8LuaStackESt14default_deleteIS3_EED2Ev, .-_ZNSt10unique_ptrIN3bbt6cxxlua6detail8LuaStackESt14default_deleteIS3_EED2Ev
	.weak	_ZNSt10unique_ptrIN3bbt6cxxlua6detail8LuaStackESt14default_deleteIS3_EED1Ev
	.set	_ZNSt10unique_ptrIN3bbt6cxxlua6detail8LuaStackESt14default_deleteIS3_EED1Ev,_ZNSt10unique_ptrIN3bbt6cxxlua6detail8LuaStackESt14default_deleteIS3_EED2Ev
	.section	.text._ZNKSt10unique_ptrIN3bbt6cxxlua6detail8LuaStackESt14default_deleteIS3_EEptEv,"axG",@progbits,_ZNKSt10unique_ptrIN3bbt6cxxlua6detail8LuaStackESt14default_deleteIS3_EEptEv,comdat
	.align 2
	.weak	_ZNKSt10unique_ptrIN3bbt6cxxlua6detail8LuaStackESt14default_deleteIS3_EEptEv
	.type	_ZNKSt10unique_ptrIN3bbt6cxxlua6detail8LuaStackESt14default_deleteIS3_EEptEv, @function
_ZNKSt10unique_ptrIN3bbt6cxxlua6detail8LuaStackESt14default_deleteIS3_EEptEv:
.LFB5513:
	.cfi_startproc
	endbr64
	pushq	%rbp
	.cfi_def_cfa_offset 16
	.cfi_offset 6, -16
	movq	%rsp, %rbp
	.cfi_def_cfa_register 6
	subq	$16, %rsp
	movq	%rdi, -8(%rbp)
	movq	-8(%rbp), %rax
	movq	%rax, %rdi
	call	_ZNKSt10unique_ptrIN3bbt6cxxlua6detail8LuaStackESt14default_deleteIS3_EE3getEv
	leave
	.cfi_def_cfa 7, 8
	ret
	.cfi_endproc
.LFE5513:
	.size	_ZNKSt10unique_ptrIN3bbt6cxxlua6detail8LuaStackESt14default_deleteIS3_EEptEv, .-_ZNKSt10unique_ptrIN3bbt6cxxlua6detail8LuaStackESt14default_deleteIS3_EEptEv
	.section	.text._ZNKSt6vectorINSt7__cxx1112basic_stringIcSt11char_traitsIcESaIcEEESaIS5_EE5beginEv,"axG",@progbits,_ZNKSt6vectorINSt7__cxx1112basic_stringIcSt11char_traitsIcESaIcEEESaIS5_EE5beginEv,comdat
	.align 2
	.weak	_ZNKSt6vectorINSt7__cxx1112basic_stringIcSt11char_traitsIcESaIcEEESaIS5_EE5beginEv
	.type	_ZNKSt6vectorINSt7__cxx1112basic_stringIcSt11char_traitsIcESaIcEEESaIS5_EE5beginEv, @function
_ZNKSt6vectorINSt7__cxx1112basic_stringIcSt11char_traitsIcESaIcEEESaIS5_EE5beginEv:
.LFB5514:
	.cfi_startproc
	endbr64
	pushq	%rbp
	.cfi_def_cfa_offset 16
	.cfi_offset 6, -16
	movq	%rsp, %rbp
	.cfi_def_cfa_register 6
	subq	$32, %rsp
	movq	%rdi, -24(%rbp)
	movq	%fs:40, %rax
	movq	%rax, -8(%rbp)
	xorl	%eax, %eax
	movq	-24(%rbp), %rdx
	leaq	-16(%rbp), %rax
	movq	%rdx, %rsi
	movq	%rax, %rdi
	call	_ZN9__gnu_cxx17__normal_iteratorIPKNSt7__cxx1112basic_stringIcSt11char_traitsIcESaIcEEESt6vectorIS6_SaIS6_EEEC1ERKS8_
	movq	-16(%rbp), %rax
	movq	-8(%rbp), %rdx
	subq	%fs:40, %rdx
	je	.L467
	call	__stack_chk_fail@PLT
.L467:
	leave
	.cfi_def_cfa 7, 8
	ret
	.cfi_endproc
.LFE5514:
	.size	_ZNKSt6vectorINSt7__cxx1112basic_stringIcSt11char_traitsIcESaIcEEESaIS5_EE5beginEv, .-_ZNKSt6vectorINSt7__cxx1112basic_stringIcSt11char_traitsIcESaIcEEESaIS5_EE5beginEv
	.section	.text._ZNKSt6vectorINSt7__cxx1112basic_stringIcSt11char_traitsIcESaIcEEESaIS5_EE3endEv,"axG",@progbits,_ZNKSt6vectorINSt7__cxx1112basic_stringIcSt11char_traitsIcESaIcEEESaIS5_EE3endEv,comdat
	.align 2
	.weak	_ZNKSt6vectorINSt7__cxx1112basic_stringIcSt11char_traitsIcESaIcEEESaIS5_EE3endEv
	.type	_ZNKSt6vectorINSt7__cxx1112basic_stringIcSt11char_traitsIcESaIcEEESaIS5_EE3endEv, @function
_ZNKSt6vectorINSt7__cxx1112basic_stringIcSt11char_traitsIcESaIcEEESaIS5_EE3endEv:
.LFB5515:
	.cfi_startproc
	endbr64
	pushq	%rbp
	.cfi_def_cfa_offset 16
	.cfi_offset 6, -16
	movq	%rsp, %rbp
	.cfi_def_cfa_register 6
	subq	$32, %rsp
	movq	%rdi, -24(%rbp)
	movq	%fs:40, %rax
	movq	%rax, -8(%rbp)
	xorl	%eax, %eax
	movq	-24(%rbp), %rax
	leaq	8(%rax), %rdx
	leaq	-16(%rbp), %rax
	movq	%rdx, %rsi
	movq	%rax, %rdi
	call	_ZN9__gnu_cxx17__normal_iteratorIPKNSt7__cxx1112basic_stringIcSt11char_traitsIcESaIcEEESt6vectorIS6_SaIS6_EEEC1ERKS8_
	movq	-16(%rbp), %rax
	movq	-8(%rbp), %rdx
	subq	%fs:40, %rdx
	je	.L470
	call	__stack_chk_fail@PLT
.L470:
	leave
	.cfi_def_cfa 7, 8
	ret
	.cfi_endproc
.LFE5515:
	.size	_ZNKSt6vectorINSt7__cxx1112basic_stringIcSt11char_traitsIcESaIcEEESaIS5_EE3endEv, .-_ZNKSt6vectorINSt7__cxx1112basic_stringIcSt11char_traitsIcESaIcEEESaIS5_EE3endEv
	.section	.text._ZN9__gnu_cxxneIPKNSt7__cxx1112basic_stringIcSt11char_traitsIcESaIcEEESt6vectorIS6_SaIS6_EEEEbRKNS_17__normal_iteratorIT_T0_EESH_,"axG",@progbits,_ZN9__gnu_cxxneIPKNSt7__cxx1112basic_stringIcSt11char_traitsIcESaIcEEESt6vectorIS6_SaIS6_EEEEbRKNS_17__normal_iteratorIT_T0_EESH_,comdat
	.weak	_ZN9__gnu_cxxneIPKNSt7__cxx1112basic_stringIcSt11char_traitsIcESaIcEEESt6vectorIS6_SaIS6_EEEEbRKNS_17__normal_iteratorIT_T0_EESH_
	.type	_ZN9__gnu_cxxneIPKNSt7__cxx1112basic_stringIcSt11char_traitsIcESaIcEEESt6vectorIS6_SaIS6_EEEEbRKNS_17__normal_iteratorIT_T0_EESH_, @function
_ZN9__gnu_cxxneIPKNSt7__cxx1112basic_stringIcSt11char_traitsIcESaIcEEESt6vectorIS6_SaIS6_EEEEbRKNS_17__normal_iteratorIT_T0_EESH_:
.LFB5516:
	.cfi_startproc
	endbr64
	pushq	%rbp
	.cfi_def_cfa_offset 16
	.cfi_offset 6, -16
	movq	%rsp, %rbp
	.cfi_def_cfa_register 6
	pushq	%rbx
	subq	$24, %rsp
	.cfi_offset 3, -24
	movq	%rdi, -24(%rbp)
	movq	%rsi, -32(%rbp)
	movq	-24(%rbp), %rax
	movq	%rax, %rdi
	call	_ZNK9__gnu_cxx17__normal_iteratorIPKNSt7__cxx1112basic_stringIcSt11char_traitsIcESaIcEEESt6vectorIS6_SaIS6_EEE4baseEv
	movq	(%rax), %rbx
	movq	-32(%rbp), %rax
	movq	%rax, %rdi
	call	_ZNK9__gnu_cxx17__normal_iteratorIPKNSt7__cxx1112basic_stringIcSt11char_traitsIcESaIcEEESt6vectorIS6_SaIS6_EEE4baseEv
	movq	(%rax), %rax
	cmpq	%rax, %rbx
	setne	%al
	movq	-8(%rbp), %rbx
	leave
	.cfi_def_cfa 7, 8
	ret
	.cfi_endproc
.LFE5516:
	.size	_ZN9__gnu_cxxneIPKNSt7__cxx1112basic_stringIcSt11char_traitsIcESaIcEEESt6vectorIS6_SaIS6_EEEEbRKNS_17__normal_iteratorIT_T0_EESH_, .-_ZN9__gnu_cxxneIPKNSt7__cxx1112basic_stringIcSt11char_traitsIcESaIcEEESt6vectorIS6_SaIS6_EEEEbRKNS_17__normal_iteratorIT_T0_EESH_
	.section	.text._ZN9__gnu_cxx17__normal_iteratorIPKNSt7__cxx1112basic_stringIcSt11char_traitsIcESaIcEEESt6vectorIS6_SaIS6_EEEppEv,"axG",@progbits,_ZN9__gnu_cxx17__normal_iteratorIPKNSt7__cxx1112basic_stringIcSt11char_traitsIcESaIcEEESt6vectorIS6_SaIS6_EEEppEv,comdat
	.align 2
	.weak	_ZN9__gnu_cxx17__normal_iteratorIPKNSt7__cxx1112basic_stringIcSt11char_traitsIcESaIcEEESt6vectorIS6_SaIS6_EEEppEv
	.type	_ZN9__gnu_cxx17__normal_iteratorIPKNSt7__cxx1112basic_stringIcSt11char_traitsIcESaIcEEESt6vectorIS6_SaIS6_EEEppEv, @function
_ZN9__gnu_cxx17__normal_iteratorIPKNSt7__cxx1112basic_stringIcSt11char_traitsIcESaIcEEESt6vectorIS6_SaIS6_EEEppEv:
.LFB5517:
	.cfi_startproc
	endbr64
	pushq	%rbp
	.cfi_def_cfa_offset 16
	.cfi_offset 6, -16
	movq	%rsp, %rbp
	.cfi_def_cfa_register 6
	movq	%rdi, -8(%rbp)
	movq	-8(%rbp), %rax
	movq	(%rax), %rax
	leaq	32(%rax), %rdx
	movq	-8(%rbp), %rax
	movq	%rdx, (%rax)
	movq	-8(%rbp), %rax
	popq	%rbp
	.cfi_def_cfa 7, 8
	ret
	.cfi_endproc
.LFE5517:
	.size	_ZN9__gnu_cxx17__normal_iteratorIPKNSt7__cxx1112basic_stringIcSt11char_traitsIcESaIcEEESt6vectorIS6_SaIS6_EEEppEv, .-_ZN9__gnu_cxx17__normal_iteratorIPKNSt7__cxx1112basic_stringIcSt11char_traitsIcESaIcEEESt6vectorIS6_SaIS6_EEEppEv
	.section	.text._ZNK9__gnu_cxx17__normal_iteratorIPKNSt7__cxx1112basic_stringIcSt11char_traitsIcESaIcEEESt6vectorIS6_SaIS6_EEEdeEv,"axG",@progbits,_ZNK9__gnu_cxx17__normal_iteratorIPKNSt7__cxx1112basic_stringIcSt11char_traitsIcESaIcEEESt6vectorIS6_SaIS6_EEEdeEv,comdat
	.align 2
	.weak	_ZNK9__gnu_cxx17__normal_iteratorIPKNSt7__cxx1112basic_stringIcSt11char_traitsIcESaIcEEESt6vectorIS6_SaIS6_EEEdeEv
	.type	_ZNK9__gnu_cxx17__normal_iteratorIPKNSt7__cxx1112basic_stringIcSt11char_traitsIcESaIcEEESt6vectorIS6_SaIS6_EEEdeEv, @function
_ZNK9__gnu_cxx17__normal_iteratorIPKNSt7__cxx1112basic_stringIcSt11char_traitsIcESaIcEEESt6vectorIS6_SaIS6_EEEdeEv:
.LFB5518:
	.cfi_startproc
	endbr64
	pushq	%rbp
	.cfi_def_cfa_offset 16
	.cfi_offset 6, -16
	movq	%rsp, %rbp
	.cfi_def_cfa_register 6
	movq	%rdi, -8(%rbp)
	movq	-8(%rbp), %rax
	movq	(%rax), %rax
	popq	%rbp
	.cfi_def_cfa 7, 8
	ret
	.cfi_endproc
.LFE5518:
	.size	_ZNK9__gnu_cxx17__normal_iteratorIPKNSt7__cxx1112basic_stringIcSt11char_traitsIcESaIcEEESt6vectorIS6_SaIS6_EEEdeEv, .-_ZNK9__gnu_cxx17__normal_iteratorIPKNSt7__cxx1112basic_stringIcSt11char_traitsIcESaIcEEESt6vectorIS6_SaIS6_EEEdeEv
	.section	.text._ZNKSt8optionalIN3bbt6cxxlua6detail6LuaErrEEcvbEv,"axG",@progbits,_ZNKSt8optionalIN3bbt6cxxlua6detail6LuaErrEEcvbEv,comdat
	.align 2
	.weak	_ZNKSt8optionalIN3bbt6cxxlua6detail6LuaErrEEcvbEv
	.type	_ZNKSt8optionalIN3bbt6cxxlua6detail6LuaErrEEcvbEv, @function
_ZNKSt8optionalIN3bbt6cxxlua6detail6LuaErrEEcvbEv:
.LFB5519:
	.cfi_startproc
	endbr64
	pushq	%rbp
	.cfi_def_cfa_offset 16
	.cfi_offset 6, -16
	movq	%rsp, %rbp
	.cfi_def_cfa_register 6
	subq	$16, %rsp
	movq	%rdi, -8(%rbp)
	movq	-8(%rbp), %rax
	movq	%rax, %rdi
	call	_ZNKSt19_Optional_base_implIN3bbt6cxxlua6detail6LuaErrESt14_Optional_baseIS3_Lb0ELb0EEE13_M_is_engagedEv
	leave
	.cfi_def_cfa 7, 8
	ret
	.cfi_endproc
.LFE5519:
	.size	_ZNKSt8optionalIN3bbt6cxxlua6detail6LuaErrEEcvbEv, .-_ZNKSt8optionalIN3bbt6cxxlua6detail6LuaErrEEcvbEv
	.section	.text._ZN3bbt6cxxlua6detail8LuaClassI6PlayerEC2Ev,"axG",@progbits,_ZN3bbt6cxxlua6detail8LuaClassI6PlayerEC5Ev,comdat
	.align 2
	.weak	_ZN3bbt6cxxlua6detail8LuaClassI6PlayerEC2Ev
	.type	_ZN3bbt6cxxlua6detail8LuaClassI6PlayerEC2Ev, @function
_ZN3bbt6cxxlua6detail8LuaClassI6PlayerEC2Ev:
.LFB5521:
	.cfi_startproc
	endbr64
	pushq	%rbp
	.cfi_def_cfa_offset 16
	.cfi_offset 6, -16
	movq	%rsp, %rbp
	.cfi_def_cfa_register 6
	movq	%rdi, -8(%rbp)
	nop
	popq	%rbp
	.cfi_def_cfa 7, 8
	ret
	.cfi_endproc
.LFE5521:
	.size	_ZN3bbt6cxxlua6detail8LuaClassI6PlayerEC2Ev, .-_ZN3bbt6cxxlua6detail8LuaClassI6PlayerEC2Ev
	.weak	_ZN3bbt6cxxlua6detail8LuaClassI6PlayerEC1Ev
	.set	_ZN3bbt6cxxlua6detail8LuaClassI6PlayerEC1Ev,_ZN3bbt6cxxlua6detail8LuaClassI6PlayerEC2Ev
	.section	.text._ZN3bbt6cxxlua6detail8LuaClassI6PlayerED2Ev,"axG",@progbits,_ZN3bbt6cxxlua6detail8LuaClassI6PlayerED5Ev,comdat
	.align 2
	.weak	_ZN3bbt6cxxlua6detail8LuaClassI6PlayerED2Ev
	.type	_ZN3bbt6cxxlua6detail8LuaClassI6PlayerED2Ev, @function
_ZN3bbt6cxxlua6detail8LuaClassI6PlayerED2Ev:
.LFB5524:
	.cfi_startproc
	endbr64
	pushq	%rbp
	.cfi_def_cfa_offset 16
	.cfi_offset 6, -16
	movq	%rsp, %rbp
	.cfi_def_cfa_register 6
	movq	%rdi, -8(%rbp)
	nop
	popq	%rbp
	.cfi_def_cfa 7, 8
	ret
	.cfi_endproc
.LFE5524:
	.size	_ZN3bbt6cxxlua6detail8LuaClassI6PlayerED2Ev, .-_ZN3bbt6cxxlua6detail8LuaClassI6PlayerED2Ev
	.weak	_ZN3bbt6cxxlua6detail8LuaClassI6PlayerED1Ev
	.set	_ZN3bbt6cxxlua6detail8LuaClassI6PlayerED1Ev,_ZN3bbt6cxxlua6detail8LuaClassI6PlayerED2Ev
	.section	.text._ZSt7forwardIRA6_KcEOT_RNSt16remove_referenceIS3_E4typeE,"axG",@progbits,_ZSt7forwardIRA6_KcEOT_RNSt16remove_referenceIS3_E4typeE,comdat
	.weak	_ZSt7forwardIRA6_KcEOT_RNSt16remove_referenceIS3_E4typeE
	.type	_ZSt7forwardIRA6_KcEOT_RNSt16remove_referenceIS3_E4typeE, @function
_ZSt7forwardIRA6_KcEOT_RNSt16remove_referenceIS3_E4typeE:
.LFB5526:
	.cfi_startproc
	endbr64
	pushq	%rbp
	.cfi_def_cfa_offset 16
	.cfi_offset 6, -16
	movq	%rsp, %rbp
	.cfi_def_cfa_register 6
	movq	%rdi, -8(%rbp)
	movq	-8(%rbp), %rax
	popq	%rbp
	.cfi_def_cfa 7, 8
	ret
	.cfi_endproc
.LFE5526:
	.size	_ZSt7forwardIRA6_KcEOT_RNSt16remove_referenceIS3_E4typeE, .-_ZSt7forwardIRA6_KcEOT_RNSt16remove_referenceIS3_E4typeE
	.section	.text._ZSt7forwardIPFiP9lua_StateEEOT_RNSt16remove_referenceIS4_E4typeE,"axG",@progbits,_ZSt7forwardIPFiP9lua_StateEEOT_RNSt16remove_referenceIS4_E4typeE,comdat
	.weak	_ZSt7forwardIPFiP9lua_StateEEOT_RNSt16remove_referenceIS4_E4typeE
	.type	_ZSt7forwardIPFiP9lua_StateEEOT_RNSt16remove_referenceIS4_E4typeE, @function
_ZSt7forwardIPFiP9lua_StateEEOT_RNSt16remove_referenceIS4_E4typeE:
.LFB5527:
	.cfi_startproc
	endbr64
	pushq	%rbp
	.cfi_def_cfa_offset 16
	.cfi_offset 6, -16
	movq	%rsp, %rbp
	.cfi_def_cfa_register 6
	movq	%rdi, -8(%rbp)
	movq	-8(%rbp), %rax
	popq	%rbp
	.cfi_def_cfa 7, 8
	ret
	.cfi_endproc
.LFE5527:
